; ModuleID = '/home/linux/Documents/DLA/source/sw/rsa_HLS/solution1/.autopilot/db/a.o.3.bc'
target datalayout = "e-p:64:64:64-i1:8:8-i8:8:8-i16:16:16-i32:32:32-i64:64:64-f32:32:32-f64:64:64-v64:64:64-v128:128:128-a0:0:64-s0:64:64-f80:128:128-n8:16:32:64-S128"
target triple = "x86_64-unknown-linux-gnu"

@llvm_global_ctors_1 = appending global [1 x void ()*] [void ()* @_GLOBAL__I_a] ; [#uses=0 type=[1 x void ()*]*]
@llvm_global_ctors_0 = appending global [1 x i32] [i32 65535] ; [#uses=0 type=[1 x i32]*]
@encrypt_str = internal unnamed_addr constant [8 x i8] c"encrypt\00" ; [#uses=1 type=[8 x i8]*]
@p_str2 = private unnamed_addr constant [1 x i8] zeroinitializer, align 1 ; [#uses=9 type=[1 x i8]*]
@p_str1 = private unnamed_addr constant [11 x i8] c"PERIPH_BUS\00", align 1 ; [#uses=3 type=[11 x i8]*]
@p_str = private unnamed_addr constant [10 x i8] c"s_axilite\00", align 1 ; [#uses=3 type=[10 x i8]*]

; [#uses=2]
declare void @llvm.dbg.value(metadata, i64, metadata) nounwind readnone

; [#uses=0]
define void @encrypt(i512 %key_V, i512* %output_V) {
  call void (...)* @_ssdm_op_SpecBitsMap(i512 %key_V), !map !42
  call void (...)* @_ssdm_op_SpecBitsMap(i512* %output_V), !map !48
  call void (...)* @_ssdm_op_SpecTopModule([8 x i8]* @encrypt_str) nounwind
  %key_V_read = call i512 @_ssdm_op_Read.s_axilite.i512(i512 %key_V) ; [#uses=1 type=i512]
  call void @llvm.dbg.value(metadata !{i512* %output_V}, i64 0, metadata !52), !dbg !675 ; [debug line = 8:36] [debug variable = output.V]
  call void (...)* @_ssdm_op_SpecInterface(i32 0, [10 x i8]* @p_str, i32 0, i32 0, i32 0, i32 0, [11 x i8]* @p_str1, [1 x i8]* @p_str2, [1 x i8]* @p_str2, i32 0, i32 0, i32 0, i32 0, [1 x i8]* @p_str2) nounwind, !dbg !676 ; [debug line = 10:1]
  call void (...)* @_ssdm_op_SpecInterface(i512 %key_V, [10 x i8]* @p_str, i32 0, i32 0, i32 0, i32 0, [11 x i8]* @p_str1, [1 x i8]* @p_str2, [1 x i8]* @p_str2, i32 0, i32 0, i32 0, i32 0, [1 x i8]* @p_str2) nounwind, !dbg !678 ; [debug line = 11:1]
  call void (...)* @_ssdm_op_SpecInterface(i512* %output_V, [10 x i8]* @p_str, i32 0, i32 0, i32 0, i32 0, [11 x i8]* @p_str1, [1 x i8]* @p_str2, [1 x i8]* @p_str2, i32 0, i32 0, i32 0, i32 0, [1 x i8]* @p_str2) nounwind, !dbg !679 ; [debug line = 12:1]
  %output_V_assign = add i512 %key_V_read, 5, !dbg !680 ; [#uses=1 type=i512] [debug line = 226:91@226:106@18:12]
  call void @llvm.dbg.value(metadata !{i512* %output_V}, i64 0, metadata !686), !dbg !690 ; [debug line = 276:53@18:12] [debug variable = ssdm_int<512 + 1024 * 0, false>.V]
  call void @_ssdm_op_Write.s_axilite.i512P(i512* %output_V, i512 %output_V_assign), !dbg !691 ; [debug line = 277:10@18:12]
  ret void, !dbg !693                             ; [debug line = 20:1]
}

; [#uses=1]
define weak void @_ssdm_op_Write.s_axilite.i512P(i512*, i512) {
entry:
  store i512 %1, i512* %0
  ret void
}

; [#uses=1]
define weak void @_ssdm_op_SpecTopModule(...) {
entry:
  ret void
}

; [#uses=3]
define weak void @_ssdm_op_SpecInterface(...) nounwind {
entry:
  ret void
}

; [#uses=2]
define weak void @_ssdm_op_SpecBitsMap(...) {
entry:
  ret void
}

; [#uses=1]
define weak i512 @_ssdm_op_Read.s_axilite.i512(i512) {
entry:
  ret i512 %0
}

; [#uses=1]
declare void @_GLOBAL__I_a() nounwind section ".text.startup"

!opencl.kernels = !{!0, !7, !7, !13, !13, !19, !22, !26, !26, !13, !28, !13, !13, !13, !31, !31, !33, !33}
!hls.encrypted.func = !{}
!llvm.map.gv = !{!35}

!0 = metadata !{null, metadata !1, metadata !2, metadata !3, metadata !4, metadata !5, metadata !6}
!1 = metadata !{metadata !"kernel_arg_addr_space", i32 0, i32 1}
!2 = metadata !{metadata !"kernel_arg_access_qual", metadata !"none", metadata !"none"}
!3 = metadata !{metadata !"kernel_arg_type", metadata !"uintMem", metadata !"uintMem*"}
!4 = metadata !{metadata !"kernel_arg_type_qual", metadata !"", metadata !""}
!5 = metadata !{metadata !"kernel_arg_name", metadata !"key", metadata !"output"}
!6 = metadata !{metadata !"reqd_work_group_size", i32 1, i32 1, i32 1}
!7 = metadata !{null, metadata !8, metadata !9, metadata !10, metadata !11, metadata !12, metadata !6}
!8 = metadata !{metadata !"kernel_arg_addr_space", i32 0}
!9 = metadata !{metadata !"kernel_arg_access_qual", metadata !"none"}
!10 = metadata !{metadata !"kernel_arg_type", metadata !"const ap_int_base<514, true> &"}
!11 = metadata !{metadata !"kernel_arg_type_qual", metadata !""}
!12 = metadata !{metadata !"kernel_arg_name", metadata !"op"}
!13 = metadata !{null, metadata !14, metadata !15, metadata !16, metadata !17, metadata !18, metadata !6}
!14 = metadata !{metadata !"kernel_arg_addr_space"}
!15 = metadata !{metadata !"kernel_arg_access_qual"}
!16 = metadata !{metadata !"kernel_arg_type"}
!17 = metadata !{metadata !"kernel_arg_type_qual"}
!18 = metadata !{metadata !"kernel_arg_name"}
!19 = metadata !{null, metadata !8, metadata !9, metadata !20, metadata !11, metadata !21, metadata !6}
!20 = metadata !{metadata !"kernel_arg_type", metadata !"const ap_uint<512> &"}
!21 = metadata !{metadata !"kernel_arg_name", metadata !"op2"}
!22 = metadata !{null, metadata !23, metadata !2, metadata !24, metadata !4, metadata !25, metadata !6}
!23 = metadata !{metadata !"kernel_arg_addr_space", i32 0, i32 0}
!24 = metadata !{metadata !"kernel_arg_type", metadata !"const ap_int_base<512, false> &", metadata !"int"}
!25 = metadata !{metadata !"kernel_arg_name", metadata !"op", metadata !"i_op"}
!26 = metadata !{null, metadata !8, metadata !9, metadata !27, metadata !11, metadata !12, metadata !6}
!27 = metadata !{metadata !"kernel_arg_type", metadata !"int"}
!28 = metadata !{null, metadata !23, metadata !2, metadata !29, metadata !4, metadata !30, metadata !6}
!29 = metadata !{metadata !"kernel_arg_type", metadata !"const ap_int_base<512, false> &", metadata !"const ap_int_base<32, true> &"}
!30 = metadata !{metadata !"kernel_arg_name", metadata !"op", metadata !"op2"}
!31 = metadata !{null, metadata !8, metadata !9, metadata !32, metadata !11, metadata !12, metadata !6}
!32 = metadata !{metadata !"kernel_arg_type", metadata !"const ap_int_base<32, true> &"}
!33 = metadata !{null, metadata !8, metadata !9, metadata !34, metadata !11, metadata !12, metadata !6}
!34 = metadata !{metadata !"kernel_arg_type", metadata !"const ap_int_base<512, false> &"}
!35 = metadata !{metadata !36, [1 x i32]* @llvm_global_ctors_0}
!36 = metadata !{metadata !37}
!37 = metadata !{i32 0, i32 31, metadata !38}
!38 = metadata !{metadata !39}
!39 = metadata !{metadata !"llvm.global_ctors.0", metadata !40, metadata !"", i32 0, i32 31}
!40 = metadata !{metadata !41}
!41 = metadata !{i32 0, i32 0, i32 1}
!42 = metadata !{metadata !43}
!43 = metadata !{i32 0, i32 511, metadata !44}
!44 = metadata !{metadata !45}
!45 = metadata !{metadata !"key.V", metadata !46, metadata !"uint512", i32 0, i32 511}
!46 = metadata !{metadata !47}
!47 = metadata !{i32 0, i32 0, i32 0}
!48 = metadata !{metadata !49}
!49 = metadata !{i32 0, i32 511, metadata !50}
!50 = metadata !{metadata !51}
!51 = metadata !{metadata !"output.V", metadata !40, metadata !"uint512", i32 0, i32 511}
!52 = metadata !{i32 790531, metadata !53, metadata !"output.V", null, i32 8, metadata !668, i32 0, i32 0} ; [ DW_TAG_arg_variable_field ]
!53 = metadata !{i32 786689, metadata !54, metadata !"output", metadata !55, i32 33554440, metadata !667, i32 0, i32 0} ; [ DW_TAG_arg_variable ]
!54 = metadata !{i32 786478, i32 0, metadata !55, metadata !"encrypt", metadata !"encrypt", metadata !"_Z7encrypt7ap_uintILi512EEPS0_", metadata !55, i32 8, metadata !56, i1 false, i1 true, i32 0, i32 0, null, i32 256, i1 false, null, null, null, metadata !76, i32 8} ; [ DW_TAG_subprogram ]
!55 = metadata !{i32 786473, metadata !"rsa_HLS/solution1/main.cpp", metadata !"/home/linux/Documents/DLA/source/sw", null} ; [ DW_TAG_file_type ]
!56 = metadata !{i32 786453, i32 0, metadata !"", i32 0, i32 0, i64 0, i64 0, i64 0, i32 0, null, metadata !57, i32 0, i32 0} ; [ DW_TAG_subroutine_type ]
!57 = metadata !{null, metadata !58, metadata !667}
!58 = metadata !{i32 786454, null, metadata !"uintMem", metadata !55, i32 6, i64 0, i64 0, i64 0, i32 0, metadata !59} ; [ DW_TAG_typedef ]
!59 = metadata !{i32 786434, null, metadata !"ap_uint<512>", metadata !60, i32 180, i64 512, i64 512, i32 0, i32 0, null, metadata !61, i32 0, null, metadata !666} ; [ DW_TAG_class_type ]
!60 = metadata !{i32 786473, metadata !"/home/Xilinx/Vivado_HLS/2016.2/common/technology/autopilot/ap_int.h", metadata !"/home/linux/Documents/DLA/source/sw", null} ; [ DW_TAG_file_type ]
!61 = metadata !{metadata !62, metadata !346, metadata !350, metadata !601, metadata !604, metadata !607, metadata !610, metadata !613, metadata !616, metadata !619, metadata !622, metadata !625, metadata !628, metadata !631, metadata !634, metadata !637, metadata !640, metadata !643, metadata !646, metadata !653, metadata !658, metadata !662, metadata !665}
!62 = metadata !{i32 786460, metadata !59, null, metadata !60, i32 0, i64 0, i64 0, i64 0, i32 0, metadata !63} ; [ DW_TAG_inheritance ]
!63 = metadata !{i32 786434, null, metadata !"ap_int_base<512, false, false>", metadata !64, i32 2341, i64 512, i64 512, i32 0, i32 0, null, metadata !65, i32 0, null, metadata !343} ; [ DW_TAG_class_type ]
!64 = metadata !{i32 786473, metadata !"/home/Xilinx/Vivado_HLS/2016.2/common/technology/autopilot/ap_int_syn.h", metadata !"/home/linux/Documents/DLA/source/sw", null} ; [ DW_TAG_file_type ]
!65 = metadata !{metadata !66, metadata !83, metadata !87, metadata !95, metadata !101, metadata !104, metadata !108, metadata !112, metadata !116, metadata !120, metadata !123, metadata !127, metadata !131, metadata !135, metadata !140, metadata !145, metadata !149, metadata !153, metadata !159, metadata !162, metadata !166, metadata !169, metadata !172, metadata !173, metadata !177, metadata !180, metadata !183, metadata !186, metadata !189, metadata !192, metadata !195, metadata !198, metadata !201, metadata !204, metadata !207, metadata !210, metadata !220, metadata !223, metadata !224, metadata !225, metadata !226, metadata !227, metadata !230, metadata !233, metadata !236, metadata !239, metadata !242, metadata !245, metadata !248, metadata !249, metadata !253, metadata !256, metadata !257, metadata !258, metadata !259, metadata !260, metadata !261, metadata !264, metadata !265, metadata !268, metadata !269, metadata !270, metadata !271, metadata !272, metadata !273, metadata !276, metadata !277, metadata !278, metadata !281, metadata !282, metadata !285, metadata !293, metadata !294, metadata !297, metadata !301, metadata !302, metadata !305, metadata !306, metadata !310, metadata !311, metadata !312, metadata !313, metadata !316, metadata !317, metadata !318, metadata !319, metadata !320, metadata !321, metadata !322, metadata !323, metadata !324, metadata !325, metadata !326, metadata !327, metadata !337, metadata !340}
!66 = metadata !{i32 786460, metadata !63, null, metadata !64, i32 0, i64 0, i64 0, i64 0, i32 0, metadata !67} ; [ DW_TAG_inheritance ]
!67 = metadata !{i32 786434, null, metadata !"ssdm_int<512 + 1024 * 0, false>", metadata !68, i32 526, i64 512, i64 512, i32 0, i32 0, null, metadata !69, i32 0, null, metadata !78} ; [ DW_TAG_class_type ]
!68 = metadata !{i32 786473, metadata !"/home/Xilinx/Vivado_HLS/2016.2/common/technology/autopilot/etc/autopilot_dt.def", metadata !"/home/linux/Documents/DLA/source/sw", null} ; [ DW_TAG_file_type ]
!69 = metadata !{metadata !70, metadata !72}
!70 = metadata !{i32 786445, metadata !67, metadata !"V", metadata !68, i32 526, i64 512, i64 512, i64 0, i32 0, metadata !71} ; [ DW_TAG_member ]
!71 = metadata !{i32 786468, null, metadata !"uint512", null, i32 0, i64 512, i64 512, i64 0, i32 0, i32 7} ; [ DW_TAG_base_type ]
!72 = metadata !{i32 786478, i32 0, metadata !67, metadata !"ssdm_int", metadata !"ssdm_int", metadata !"", metadata !68, i32 526, metadata !73, i1 false, i1 false, i32 0, i32 0, null, i32 256, i1 false, null, null, i32 0, metadata !76, i32 526} ; [ DW_TAG_subprogram ]
!73 = metadata !{i32 786453, i32 0, metadata !"", i32 0, i32 0, i64 0, i64 0, i64 0, i32 0, null, metadata !74, i32 0, i32 0} ; [ DW_TAG_subroutine_type ]
!74 = metadata !{null, metadata !75}
!75 = metadata !{i32 786447, i32 0, metadata !"", i32 0, i32 0, i64 64, i64 64, i64 0, i32 64, metadata !67} ; [ DW_TAG_pointer_type ]
!76 = metadata !{metadata !77}
!77 = metadata !{i32 786468}                      ; [ DW_TAG_base_type ]
!78 = metadata !{metadata !79, metadata !81}
!79 = metadata !{i32 786480, null, metadata !"_AP_N", metadata !80, i64 512, null, i32 0, i32 0} ; [ DW_TAG_template_value_parameter ]
!80 = metadata !{i32 786468, null, metadata !"int", null, i32 0, i64 32, i64 32, i64 0, i32 0, i32 5} ; [ DW_TAG_base_type ]
!81 = metadata !{i32 786480, null, metadata !"_AP_S", metadata !82, i64 0, null, i32 0, i32 0} ; [ DW_TAG_template_value_parameter ]
!82 = metadata !{i32 786468, null, metadata !"bool", null, i32 0, i64 8, i64 8, i64 0, i32 0, i32 2} ; [ DW_TAG_base_type ]
!83 = metadata !{i32 786478, i32 0, metadata !63, metadata !"ap_int_base", metadata !"ap_int_base", metadata !"", metadata !64, i32 2379, metadata !84, i1 false, i1 false, i32 0, i32 0, null, i32 256, i1 false, null, null, i32 0, metadata !76, i32 2379} ; [ DW_TAG_subprogram ]
!84 = metadata !{i32 786453, i32 0, metadata !"", i32 0, i32 0, i64 0, i64 0, i64 0, i32 0, null, metadata !85, i32 0, i32 0} ; [ DW_TAG_subroutine_type ]
!85 = metadata !{null, metadata !86}
!86 = metadata !{i32 786447, i32 0, metadata !"", i32 0, i32 0, i64 64, i64 64, i64 0, i32 64, metadata !63} ; [ DW_TAG_pointer_type ]
!87 = metadata !{i32 786478, i32 0, metadata !63, metadata !"ap_int_base<512, false>", metadata !"ap_int_base<512, false>", metadata !"", metadata !64, i32 2391, metadata !88, i1 false, i1 false, i32 0, i32 0, null, i32 256, i1 false, null, metadata !92, i32 0, metadata !76, i32 2391} ; [ DW_TAG_subprogram ]
!88 = metadata !{i32 786453, i32 0, metadata !"", i32 0, i32 0, i64 0, i64 0, i64 0, i32 0, null, metadata !89, i32 0, i32 0} ; [ DW_TAG_subroutine_type ]
!89 = metadata !{null, metadata !86, metadata !90}
!90 = metadata !{i32 786448, null, null, null, i32 0, i64 0, i64 0, i64 0, i32 0, metadata !91} ; [ DW_TAG_reference_type ]
!91 = metadata !{i32 786470, null, metadata !"", null, i32 0, i64 0, i64 0, i64 0, i32 0, metadata !63} ; [ DW_TAG_const_type ]
!92 = metadata !{metadata !93, metadata !94}
!93 = metadata !{i32 786480, null, metadata !"_AP_W2", metadata !80, i64 512, null, i32 0, i32 0} ; [ DW_TAG_template_value_parameter ]
!94 = metadata !{i32 786480, null, metadata !"_AP_S2", metadata !82, i64 0, null, i32 0, i32 0} ; [ DW_TAG_template_value_parameter ]
!95 = metadata !{i32 786478, i32 0, metadata !63, metadata !"ap_int_base<512, false>", metadata !"ap_int_base<512, false>", metadata !"", metadata !64, i32 2394, metadata !96, i1 false, i1 false, i32 0, i32 0, null, i32 256, i1 false, null, metadata !92, i32 0, metadata !76, i32 2394} ; [ DW_TAG_subprogram ]
!96 = metadata !{i32 786453, i32 0, metadata !"", i32 0, i32 0, i64 0, i64 0, i64 0, i32 0, null, metadata !97, i32 0, i32 0} ; [ DW_TAG_subroutine_type ]
!97 = metadata !{null, metadata !86, metadata !98}
!98 = metadata !{i32 786448, null, null, null, i32 0, i64 0, i64 0, i64 0, i32 0, metadata !99} ; [ DW_TAG_reference_type ]
!99 = metadata !{i32 786470, null, metadata !"", null, i32 0, i64 0, i64 0, i64 0, i32 0, metadata !100} ; [ DW_TAG_const_type ]
!100 = metadata !{i32 786485, null, metadata !"", null, i32 0, i64 0, i64 0, i64 0, i32 0, metadata !63} ; [ DW_TAG_volatile_type ]
!101 = metadata !{i32 786478, i32 0, metadata !63, metadata !"ap_int_base", metadata !"ap_int_base", metadata !"", metadata !64, i32 2401, metadata !102, i1 false, i1 false, i32 0, i32 0, null, i32 384, i1 false, null, null, i32 0, metadata !76, i32 2401} ; [ DW_TAG_subprogram ]
!102 = metadata !{i32 786453, i32 0, metadata !"", i32 0, i32 0, i64 0, i64 0, i64 0, i32 0, null, metadata !103, i32 0, i32 0} ; [ DW_TAG_subroutine_type ]
!103 = metadata !{null, metadata !86, metadata !82}
!104 = metadata !{i32 786478, i32 0, metadata !63, metadata !"ap_int_base", metadata !"ap_int_base", metadata !"", metadata !64, i32 2402, metadata !105, i1 false, i1 false, i32 0, i32 0, null, i32 384, i1 false, null, null, i32 0, metadata !76, i32 2402} ; [ DW_TAG_subprogram ]
!105 = metadata !{i32 786453, i32 0, metadata !"", i32 0, i32 0, i64 0, i64 0, i64 0, i32 0, null, metadata !106, i32 0, i32 0} ; [ DW_TAG_subroutine_type ]
!106 = metadata !{null, metadata !86, metadata !107}
!107 = metadata !{i32 786468, null, metadata !"signed char", null, i32 0, i64 8, i64 8, i64 0, i32 0, i32 6} ; [ DW_TAG_base_type ]
!108 = metadata !{i32 786478, i32 0, metadata !63, metadata !"ap_int_base", metadata !"ap_int_base", metadata !"", metadata !64, i32 2403, metadata !109, i1 false, i1 false, i32 0, i32 0, null, i32 384, i1 false, null, null, i32 0, metadata !76, i32 2403} ; [ DW_TAG_subprogram ]
!109 = metadata !{i32 786453, i32 0, metadata !"", i32 0, i32 0, i64 0, i64 0, i64 0, i32 0, null, metadata !110, i32 0, i32 0} ; [ DW_TAG_subroutine_type ]
!110 = metadata !{null, metadata !86, metadata !111}
!111 = metadata !{i32 786468, null, metadata !"unsigned char", null, i32 0, i64 8, i64 8, i64 0, i32 0, i32 8} ; [ DW_TAG_base_type ]
!112 = metadata !{i32 786478, i32 0, metadata !63, metadata !"ap_int_base", metadata !"ap_int_base", metadata !"", metadata !64, i32 2404, metadata !113, i1 false, i1 false, i32 0, i32 0, null, i32 384, i1 false, null, null, i32 0, metadata !76, i32 2404} ; [ DW_TAG_subprogram ]
!113 = metadata !{i32 786453, i32 0, metadata !"", i32 0, i32 0, i64 0, i64 0, i64 0, i32 0, null, metadata !114, i32 0, i32 0} ; [ DW_TAG_subroutine_type ]
!114 = metadata !{null, metadata !86, metadata !115}
!115 = metadata !{i32 786468, null, metadata !"short", null, i32 0, i64 16, i64 16, i64 0, i32 0, i32 5} ; [ DW_TAG_base_type ]
!116 = metadata !{i32 786478, i32 0, metadata !63, metadata !"ap_int_base", metadata !"ap_int_base", metadata !"", metadata !64, i32 2405, metadata !117, i1 false, i1 false, i32 0, i32 0, null, i32 384, i1 false, null, null, i32 0, metadata !76, i32 2405} ; [ DW_TAG_subprogram ]
!117 = metadata !{i32 786453, i32 0, metadata !"", i32 0, i32 0, i64 0, i64 0, i64 0, i32 0, null, metadata !118, i32 0, i32 0} ; [ DW_TAG_subroutine_type ]
!118 = metadata !{null, metadata !86, metadata !119}
!119 = metadata !{i32 786468, null, metadata !"unsigned short", null, i32 0, i64 16, i64 16, i64 0, i32 0, i32 7} ; [ DW_TAG_base_type ]
!120 = metadata !{i32 786478, i32 0, metadata !63, metadata !"ap_int_base", metadata !"ap_int_base", metadata !"", metadata !64, i32 2406, metadata !121, i1 false, i1 false, i32 0, i32 0, null, i32 384, i1 false, null, null, i32 0, metadata !76, i32 2406} ; [ DW_TAG_subprogram ]
!121 = metadata !{i32 786453, i32 0, metadata !"", i32 0, i32 0, i64 0, i64 0, i64 0, i32 0, null, metadata !122, i32 0, i32 0} ; [ DW_TAG_subroutine_type ]
!122 = metadata !{null, metadata !86, metadata !80}
!123 = metadata !{i32 786478, i32 0, metadata !63, metadata !"ap_int_base", metadata !"ap_int_base", metadata !"", metadata !64, i32 2407, metadata !124, i1 false, i1 false, i32 0, i32 0, null, i32 384, i1 false, null, null, i32 0, metadata !76, i32 2407} ; [ DW_TAG_subprogram ]
!124 = metadata !{i32 786453, i32 0, metadata !"", i32 0, i32 0, i64 0, i64 0, i64 0, i32 0, null, metadata !125, i32 0, i32 0} ; [ DW_TAG_subroutine_type ]
!125 = metadata !{null, metadata !86, metadata !126}
!126 = metadata !{i32 786468, null, metadata !"unsigned int", null, i32 0, i64 32, i64 32, i64 0, i32 0, i32 7} ; [ DW_TAG_base_type ]
!127 = metadata !{i32 786478, i32 0, metadata !63, metadata !"ap_int_base", metadata !"ap_int_base", metadata !"", metadata !64, i32 2408, metadata !128, i1 false, i1 false, i32 0, i32 0, null, i32 384, i1 false, null, null, i32 0, metadata !76, i32 2408} ; [ DW_TAG_subprogram ]
!128 = metadata !{i32 786453, i32 0, metadata !"", i32 0, i32 0, i64 0, i64 0, i64 0, i32 0, null, metadata !129, i32 0, i32 0} ; [ DW_TAG_subroutine_type ]
!129 = metadata !{null, metadata !86, metadata !130}
!130 = metadata !{i32 786468, null, metadata !"long int", null, i32 0, i64 64, i64 64, i64 0, i32 0, i32 5} ; [ DW_TAG_base_type ]
!131 = metadata !{i32 786478, i32 0, metadata !63, metadata !"ap_int_base", metadata !"ap_int_base", metadata !"", metadata !64, i32 2409, metadata !132, i1 false, i1 false, i32 0, i32 0, null, i32 384, i1 false, null, null, i32 0, metadata !76, i32 2409} ; [ DW_TAG_subprogram ]
!132 = metadata !{i32 786453, i32 0, metadata !"", i32 0, i32 0, i64 0, i64 0, i64 0, i32 0, null, metadata !133, i32 0, i32 0} ; [ DW_TAG_subroutine_type ]
!133 = metadata !{null, metadata !86, metadata !134}
!134 = metadata !{i32 786468, null, metadata !"long unsigned int", null, i32 0, i64 64, i64 64, i64 0, i32 0, i32 7} ; [ DW_TAG_base_type ]
!135 = metadata !{i32 786478, i32 0, metadata !63, metadata !"ap_int_base", metadata !"ap_int_base", metadata !"", metadata !64, i32 2410, metadata !136, i1 false, i1 false, i32 0, i32 0, null, i32 384, i1 false, null, null, i32 0, metadata !76, i32 2410} ; [ DW_TAG_subprogram ]
!136 = metadata !{i32 786453, i32 0, metadata !"", i32 0, i32 0, i64 0, i64 0, i64 0, i32 0, null, metadata !137, i32 0, i32 0} ; [ DW_TAG_subroutine_type ]
!137 = metadata !{null, metadata !86, metadata !138}
!138 = metadata !{i32 786454, null, metadata !"ap_slong", metadata !64, i32 111, i64 0, i64 0, i64 0, i32 0, metadata !139} ; [ DW_TAG_typedef ]
!139 = metadata !{i32 786468, null, metadata !"long long int", null, i32 0, i64 64, i64 64, i64 0, i32 0, i32 5} ; [ DW_TAG_base_type ]
!140 = metadata !{i32 786478, i32 0, metadata !63, metadata !"ap_int_base", metadata !"ap_int_base", metadata !"", metadata !64, i32 2411, metadata !141, i1 false, i1 false, i32 0, i32 0, null, i32 384, i1 false, null, null, i32 0, metadata !76, i32 2411} ; [ DW_TAG_subprogram ]
!141 = metadata !{i32 786453, i32 0, metadata !"", i32 0, i32 0, i64 0, i64 0, i64 0, i32 0, null, metadata !142, i32 0, i32 0} ; [ DW_TAG_subroutine_type ]
!142 = metadata !{null, metadata !86, metadata !143}
!143 = metadata !{i32 786454, null, metadata !"ap_ulong", metadata !64, i32 110, i64 0, i64 0, i64 0, i32 0, metadata !144} ; [ DW_TAG_typedef ]
!144 = metadata !{i32 786468, null, metadata !"long long unsigned int", null, i32 0, i64 64, i64 64, i64 0, i32 0, i32 7} ; [ DW_TAG_base_type ]
!145 = metadata !{i32 786478, i32 0, metadata !63, metadata !"ap_int_base", metadata !"ap_int_base", metadata !"", metadata !64, i32 2412, metadata !146, i1 false, i1 false, i32 0, i32 0, null, i32 384, i1 false, null, null, i32 0, metadata !76, i32 2412} ; [ DW_TAG_subprogram ]
!146 = metadata !{i32 786453, i32 0, metadata !"", i32 0, i32 0, i64 0, i64 0, i64 0, i32 0, null, metadata !147, i32 0, i32 0} ; [ DW_TAG_subroutine_type ]
!147 = metadata !{null, metadata !86, metadata !148}
!148 = metadata !{i32 786468, null, metadata !"float", null, i32 0, i64 32, i64 32, i64 0, i32 0, i32 4} ; [ DW_TAG_base_type ]
!149 = metadata !{i32 786478, i32 0, metadata !63, metadata !"ap_int_base", metadata !"ap_int_base", metadata !"", metadata !64, i32 2413, metadata !150, i1 false, i1 false, i32 0, i32 0, null, i32 384, i1 false, null, null, i32 0, metadata !76, i32 2413} ; [ DW_TAG_subprogram ]
!150 = metadata !{i32 786453, i32 0, metadata !"", i32 0, i32 0, i64 0, i64 0, i64 0, i32 0, null, metadata !151, i32 0, i32 0} ; [ DW_TAG_subroutine_type ]
!151 = metadata !{null, metadata !86, metadata !152}
!152 = metadata !{i32 786468, null, metadata !"double", null, i32 0, i64 64, i64 64, i64 0, i32 0, i32 4} ; [ DW_TAG_base_type ]
!153 = metadata !{i32 786478, i32 0, metadata !63, metadata !"ap_int_base", metadata !"ap_int_base", metadata !"", metadata !64, i32 2440, metadata !154, i1 false, i1 false, i32 0, i32 0, null, i32 256, i1 false, null, null, i32 0, metadata !76, i32 2440} ; [ DW_TAG_subprogram ]
!154 = metadata !{i32 786453, i32 0, metadata !"", i32 0, i32 0, i64 0, i64 0, i64 0, i32 0, null, metadata !155, i32 0, i32 0} ; [ DW_TAG_subroutine_type ]
!155 = metadata !{null, metadata !86, metadata !156}
!156 = metadata !{i32 786447, null, metadata !"", null, i32 0, i64 64, i64 64, i64 0, i32 0, metadata !157} ; [ DW_TAG_pointer_type ]
!157 = metadata !{i32 786470, null, metadata !"", null, i32 0, i64 0, i64 0, i64 0, i32 0, metadata !158} ; [ DW_TAG_const_type ]
!158 = metadata !{i32 786468, null, metadata !"char", null, i32 0, i64 8, i64 8, i64 0, i32 0, i32 6} ; [ DW_TAG_base_type ]
!159 = metadata !{i32 786478, i32 0, metadata !63, metadata !"ap_int_base", metadata !"ap_int_base", metadata !"", metadata !64, i32 2447, metadata !160, i1 false, i1 false, i32 0, i32 0, null, i32 256, i1 false, null, null, i32 0, metadata !76, i32 2447} ; [ DW_TAG_subprogram ]
!160 = metadata !{i32 786453, i32 0, metadata !"", i32 0, i32 0, i64 0, i64 0, i64 0, i32 0, null, metadata !161, i32 0, i32 0} ; [ DW_TAG_subroutine_type ]
!161 = metadata !{null, metadata !86, metadata !156, metadata !107}
!162 = metadata !{i32 786478, i32 0, metadata !63, metadata !"read", metadata !"read", metadata !"_ZNV11ap_int_baseILi512ELb0ELb0EE4readEv", metadata !64, i32 2468, metadata !163, i1 false, i1 false, i32 0, i32 0, null, i32 256, i1 false, null, null, i32 0, metadata !76, i32 2468} ; [ DW_TAG_subprogram ]
!163 = metadata !{i32 786453, i32 0, metadata !"", i32 0, i32 0, i64 0, i64 0, i64 0, i32 0, null, metadata !164, i32 0, i32 0} ; [ DW_TAG_subroutine_type ]
!164 = metadata !{metadata !63, metadata !165}
!165 = metadata !{i32 786447, i32 0, metadata !"", i32 0, i32 0, i64 64, i64 64, i64 0, i32 64, metadata !100} ; [ DW_TAG_pointer_type ]
!166 = metadata !{i32 786478, i32 0, metadata !63, metadata !"write", metadata !"write", metadata !"_ZNV11ap_int_baseILi512ELb0ELb0EE5writeERKS0_", metadata !64, i32 2474, metadata !167, i1 false, i1 false, i32 0, i32 0, null, i32 256, i1 false, null, null, i32 0, metadata !76, i32 2474} ; [ DW_TAG_subprogram ]
!167 = metadata !{i32 786453, i32 0, metadata !"", i32 0, i32 0, i64 0, i64 0, i64 0, i32 0, null, metadata !168, i32 0, i32 0} ; [ DW_TAG_subroutine_type ]
!168 = metadata !{null, metadata !165, metadata !90}
!169 = metadata !{i32 786478, i32 0, metadata !63, metadata !"operator=", metadata !"operator=", metadata !"_ZNV11ap_int_baseILi512ELb0ELb0EEaSERVKS0_", metadata !64, i32 2486, metadata !170, i1 false, i1 false, i32 0, i32 0, null, i32 256, i1 false, null, null, i32 0, metadata !76, i32 2486} ; [ DW_TAG_subprogram ]
!170 = metadata !{i32 786453, i32 0, metadata !"", i32 0, i32 0, i64 0, i64 0, i64 0, i32 0, null, metadata !171, i32 0, i32 0} ; [ DW_TAG_subroutine_type ]
!171 = metadata !{null, metadata !165, metadata !98}
!172 = metadata !{i32 786478, i32 0, metadata !63, metadata !"operator=", metadata !"operator=", metadata !"_ZNV11ap_int_baseILi512ELb0ELb0EEaSERKS0_", metadata !64, i32 2495, metadata !167, i1 false, i1 false, i32 0, i32 0, null, i32 256, i1 false, null, null, i32 0, metadata !76, i32 2495} ; [ DW_TAG_subprogram ]
!173 = metadata !{i32 786478, i32 0, metadata !63, metadata !"operator=", metadata !"operator=", metadata !"_ZN11ap_int_baseILi512ELb0ELb0EEaSERVKS0_", metadata !64, i32 2518, metadata !174, i1 false, i1 false, i32 0, i32 0, null, i32 256, i1 false, null, null, i32 0, metadata !76, i32 2518} ; [ DW_TAG_subprogram ]
!174 = metadata !{i32 786453, i32 0, metadata !"", i32 0, i32 0, i64 0, i64 0, i64 0, i32 0, null, metadata !175, i32 0, i32 0} ; [ DW_TAG_subroutine_type ]
!175 = metadata !{metadata !176, metadata !86, metadata !98}
!176 = metadata !{i32 786448, null, null, null, i32 0, i64 0, i64 0, i64 0, i32 0, metadata !63} ; [ DW_TAG_reference_type ]
!177 = metadata !{i32 786478, i32 0, metadata !63, metadata !"operator=", metadata !"operator=", metadata !"_ZN11ap_int_baseILi512ELb0ELb0EEaSERKS0_", metadata !64, i32 2523, metadata !178, i1 false, i1 false, i32 0, i32 0, null, i32 256, i1 false, null, null, i32 0, metadata !76, i32 2523} ; [ DW_TAG_subprogram ]
!178 = metadata !{i32 786453, i32 0, metadata !"", i32 0, i32 0, i64 0, i64 0, i64 0, i32 0, null, metadata !179, i32 0, i32 0} ; [ DW_TAG_subroutine_type ]
!179 = metadata !{metadata !176, metadata !86, metadata !90}
!180 = metadata !{i32 786478, i32 0, metadata !63, metadata !"operator=", metadata !"operator=", metadata !"_ZN11ap_int_baseILi512ELb0ELb0EEaSEPKc", metadata !64, i32 2527, metadata !181, i1 false, i1 false, i32 0, i32 0, null, i32 256, i1 false, null, null, i32 0, metadata !76, i32 2527} ; [ DW_TAG_subprogram ]
!181 = metadata !{i32 786453, i32 0, metadata !"", i32 0, i32 0, i64 0, i64 0, i64 0, i32 0, null, metadata !182, i32 0, i32 0} ; [ DW_TAG_subroutine_type ]
!182 = metadata !{metadata !176, metadata !86, metadata !156}
!183 = metadata !{i32 786478, i32 0, metadata !63, metadata !"set", metadata !"set", metadata !"_ZN11ap_int_baseILi512ELb0ELb0EE3setEPKca", metadata !64, i32 2535, metadata !184, i1 false, i1 false, i32 0, i32 0, null, i32 256, i1 false, null, null, i32 0, metadata !76, i32 2535} ; [ DW_TAG_subprogram ]
!184 = metadata !{i32 786453, i32 0, metadata !"", i32 0, i32 0, i64 0, i64 0, i64 0, i32 0, null, metadata !185, i32 0, i32 0} ; [ DW_TAG_subroutine_type ]
!185 = metadata !{metadata !176, metadata !86, metadata !156, metadata !107}
!186 = metadata !{i32 786478, i32 0, metadata !63, metadata !"operator=", metadata !"operator=", metadata !"_ZN11ap_int_baseILi512ELb0ELb0EEaSEc", metadata !64, i32 2549, metadata !187, i1 false, i1 false, i32 0, i32 0, null, i32 256, i1 false, null, null, i32 0, metadata !76, i32 2549} ; [ DW_TAG_subprogram ]
!187 = metadata !{i32 786453, i32 0, metadata !"", i32 0, i32 0, i64 0, i64 0, i64 0, i32 0, null, metadata !188, i32 0, i32 0} ; [ DW_TAG_subroutine_type ]
!188 = metadata !{metadata !176, metadata !86, metadata !158}
!189 = metadata !{i32 786478, i32 0, metadata !63, metadata !"operator=", metadata !"operator=", metadata !"_ZN11ap_int_baseILi512ELb0ELb0EEaSEh", metadata !64, i32 2550, metadata !190, i1 false, i1 false, i32 0, i32 0, null, i32 256, i1 false, null, null, i32 0, metadata !76, i32 2550} ; [ DW_TAG_subprogram ]
!190 = metadata !{i32 786453, i32 0, metadata !"", i32 0, i32 0, i64 0, i64 0, i64 0, i32 0, null, metadata !191, i32 0, i32 0} ; [ DW_TAG_subroutine_type ]
!191 = metadata !{metadata !176, metadata !86, metadata !111}
!192 = metadata !{i32 786478, i32 0, metadata !63, metadata !"operator=", metadata !"operator=", metadata !"_ZN11ap_int_baseILi512ELb0ELb0EEaSEs", metadata !64, i32 2551, metadata !193, i1 false, i1 false, i32 0, i32 0, null, i32 256, i1 false, null, null, i32 0, metadata !76, i32 2551} ; [ DW_TAG_subprogram ]
!193 = metadata !{i32 786453, i32 0, metadata !"", i32 0, i32 0, i64 0, i64 0, i64 0, i32 0, null, metadata !194, i32 0, i32 0} ; [ DW_TAG_subroutine_type ]
!194 = metadata !{metadata !176, metadata !86, metadata !115}
!195 = metadata !{i32 786478, i32 0, metadata !63, metadata !"operator=", metadata !"operator=", metadata !"_ZN11ap_int_baseILi512ELb0ELb0EEaSEt", metadata !64, i32 2552, metadata !196, i1 false, i1 false, i32 0, i32 0, null, i32 256, i1 false, null, null, i32 0, metadata !76, i32 2552} ; [ DW_TAG_subprogram ]
!196 = metadata !{i32 786453, i32 0, metadata !"", i32 0, i32 0, i64 0, i64 0, i64 0, i32 0, null, metadata !197, i32 0, i32 0} ; [ DW_TAG_subroutine_type ]
!197 = metadata !{metadata !176, metadata !86, metadata !119}
!198 = metadata !{i32 786478, i32 0, metadata !63, metadata !"operator=", metadata !"operator=", metadata !"_ZN11ap_int_baseILi512ELb0ELb0EEaSEi", metadata !64, i32 2553, metadata !199, i1 false, i1 false, i32 0, i32 0, null, i32 256, i1 false, null, null, i32 0, metadata !76, i32 2553} ; [ DW_TAG_subprogram ]
!199 = metadata !{i32 786453, i32 0, metadata !"", i32 0, i32 0, i64 0, i64 0, i64 0, i32 0, null, metadata !200, i32 0, i32 0} ; [ DW_TAG_subroutine_type ]
!200 = metadata !{metadata !176, metadata !86, metadata !80}
!201 = metadata !{i32 786478, i32 0, metadata !63, metadata !"operator=", metadata !"operator=", metadata !"_ZN11ap_int_baseILi512ELb0ELb0EEaSEj", metadata !64, i32 2554, metadata !202, i1 false, i1 false, i32 0, i32 0, null, i32 256, i1 false, null, null, i32 0, metadata !76, i32 2554} ; [ DW_TAG_subprogram ]
!202 = metadata !{i32 786453, i32 0, metadata !"", i32 0, i32 0, i64 0, i64 0, i64 0, i32 0, null, metadata !203, i32 0, i32 0} ; [ DW_TAG_subroutine_type ]
!203 = metadata !{metadata !176, metadata !86, metadata !126}
!204 = metadata !{i32 786478, i32 0, metadata !63, metadata !"operator=", metadata !"operator=", metadata !"_ZN11ap_int_baseILi512ELb0ELb0EEaSEx", metadata !64, i32 2555, metadata !205, i1 false, i1 false, i32 0, i32 0, null, i32 256, i1 false, null, null, i32 0, metadata !76, i32 2555} ; [ DW_TAG_subprogram ]
!205 = metadata !{i32 786453, i32 0, metadata !"", i32 0, i32 0, i64 0, i64 0, i64 0, i32 0, null, metadata !206, i32 0, i32 0} ; [ DW_TAG_subroutine_type ]
!206 = metadata !{metadata !176, metadata !86, metadata !138}
!207 = metadata !{i32 786478, i32 0, metadata !63, metadata !"operator=", metadata !"operator=", metadata !"_ZN11ap_int_baseILi512ELb0ELb0EEaSEy", metadata !64, i32 2556, metadata !208, i1 false, i1 false, i32 0, i32 0, null, i32 256, i1 false, null, null, i32 0, metadata !76, i32 2556} ; [ DW_TAG_subprogram ]
!208 = metadata !{i32 786453, i32 0, metadata !"", i32 0, i32 0, i64 0, i64 0, i64 0, i32 0, null, metadata !209, i32 0, i32 0} ; [ DW_TAG_subroutine_type ]
!209 = metadata !{metadata !176, metadata !86, metadata !143}
!210 = metadata !{i32 786478, i32 0, metadata !63, metadata !"operator unsigned long long", metadata !"operator unsigned long long", metadata !"_ZNK11ap_int_baseILi512ELb0ELb0EEcvyEv", metadata !64, i32 2595, metadata !211, i1 false, i1 false, i32 0, i32 0, null, i32 256, i1 false, null, null, i32 0, metadata !76, i32 2595} ; [ DW_TAG_subprogram ]
!211 = metadata !{i32 786453, i32 0, metadata !"", i32 0, i32 0, i64 0, i64 0, i64 0, i32 0, null, metadata !212, i32 0, i32 0} ; [ DW_TAG_subroutine_type ]
!212 = metadata !{metadata !213, metadata !219}
!213 = metadata !{i32 786454, metadata !63, metadata !"RetType", metadata !64, i32 2345, i64 0, i64 0, i64 0, i32 0, metadata !214} ; [ DW_TAG_typedef ]
!214 = metadata !{i32 786454, metadata !215, metadata !"Type", metadata !64, i32 1363, i64 0, i64 0, i64 0, i32 0, metadata !143} ; [ DW_TAG_typedef ]
!215 = metadata !{i32 786434, null, metadata !"retval<8, false>", metadata !64, i32 1362, i64 8, i64 8, i32 0, i32 0, null, metadata !216, i32 0, null, metadata !217} ; [ DW_TAG_class_type ]
!216 = metadata !{i32 0}
!217 = metadata !{metadata !218, metadata !81}
!218 = metadata !{i32 786480, null, metadata !"_AP_N", metadata !80, i64 8, null, i32 0, i32 0} ; [ DW_TAG_template_value_parameter ]
!219 = metadata !{i32 786447, i32 0, metadata !"", i32 0, i32 0, i64 64, i64 64, i64 0, i32 64, metadata !91} ; [ DW_TAG_pointer_type ]
!220 = metadata !{i32 786478, i32 0, metadata !63, metadata !"to_bool", metadata !"to_bool", metadata !"_ZNK11ap_int_baseILi512ELb0ELb0EE7to_boolEv", metadata !64, i32 2601, metadata !221, i1 false, i1 false, i32 0, i32 0, null, i32 256, i1 false, null, null, i32 0, metadata !76, i32 2601} ; [ DW_TAG_subprogram ]
!221 = metadata !{i32 786453, i32 0, metadata !"", i32 0, i32 0, i64 0, i64 0, i64 0, i32 0, null, metadata !222, i32 0, i32 0} ; [ DW_TAG_subroutine_type ]
!222 = metadata !{metadata !82, metadata !219}
!223 = metadata !{i32 786478, i32 0, metadata !63, metadata !"to_uchar", metadata !"to_uchar", metadata !"_ZNK11ap_int_baseILi512ELb0ELb0EE8to_ucharEv", metadata !64, i32 2602, metadata !221, i1 false, i1 false, i32 0, i32 0, null, i32 256, i1 false, null, null, i32 0, metadata !76, i32 2602} ; [ DW_TAG_subprogram ]
!224 = metadata !{i32 786478, i32 0, metadata !63, metadata !"to_char", metadata !"to_char", metadata !"_ZNK11ap_int_baseILi512ELb0ELb0EE7to_charEv", metadata !64, i32 2603, metadata !221, i1 false, i1 false, i32 0, i32 0, null, i32 256, i1 false, null, null, i32 0, metadata !76, i32 2603} ; [ DW_TAG_subprogram ]
!225 = metadata !{i32 786478, i32 0, metadata !63, metadata !"to_ushort", metadata !"to_ushort", metadata !"_ZNK11ap_int_baseILi512ELb0ELb0EE9to_ushortEv", metadata !64, i32 2604, metadata !221, i1 false, i1 false, i32 0, i32 0, null, i32 256, i1 false, null, null, i32 0, metadata !76, i32 2604} ; [ DW_TAG_subprogram ]
!226 = metadata !{i32 786478, i32 0, metadata !63, metadata !"to_short", metadata !"to_short", metadata !"_ZNK11ap_int_baseILi512ELb0ELb0EE8to_shortEv", metadata !64, i32 2605, metadata !221, i1 false, i1 false, i32 0, i32 0, null, i32 256, i1 false, null, null, i32 0, metadata !76, i32 2605} ; [ DW_TAG_subprogram ]
!227 = metadata !{i32 786478, i32 0, metadata !63, metadata !"to_int", metadata !"to_int", metadata !"_ZNK11ap_int_baseILi512ELb0ELb0EE6to_intEv", metadata !64, i32 2606, metadata !228, i1 false, i1 false, i32 0, i32 0, null, i32 256, i1 false, null, null, i32 0, metadata !76, i32 2606} ; [ DW_TAG_subprogram ]
!228 = metadata !{i32 786453, i32 0, metadata !"", i32 0, i32 0, i64 0, i64 0, i64 0, i32 0, null, metadata !229, i32 0, i32 0} ; [ DW_TAG_subroutine_type ]
!229 = metadata !{metadata !80, metadata !219}
!230 = metadata !{i32 786478, i32 0, metadata !63, metadata !"to_uint", metadata !"to_uint", metadata !"_ZNK11ap_int_baseILi512ELb0ELb0EE7to_uintEv", metadata !64, i32 2607, metadata !231, i1 false, i1 false, i32 0, i32 0, null, i32 256, i1 false, null, null, i32 0, metadata !76, i32 2607} ; [ DW_TAG_subprogram ]
!231 = metadata !{i32 786453, i32 0, metadata !"", i32 0, i32 0, i64 0, i64 0, i64 0, i32 0, null, metadata !232, i32 0, i32 0} ; [ DW_TAG_subroutine_type ]
!232 = metadata !{metadata !126, metadata !219}
!233 = metadata !{i32 786478, i32 0, metadata !63, metadata !"to_long", metadata !"to_long", metadata !"_ZNK11ap_int_baseILi512ELb0ELb0EE7to_longEv", metadata !64, i32 2608, metadata !234, i1 false, i1 false, i32 0, i32 0, null, i32 256, i1 false, null, null, i32 0, metadata !76, i32 2608} ; [ DW_TAG_subprogram ]
!234 = metadata !{i32 786453, i32 0, metadata !"", i32 0, i32 0, i64 0, i64 0, i64 0, i32 0, null, metadata !235, i32 0, i32 0} ; [ DW_TAG_subroutine_type ]
!235 = metadata !{metadata !130, metadata !219}
!236 = metadata !{i32 786478, i32 0, metadata !63, metadata !"to_ulong", metadata !"to_ulong", metadata !"_ZNK11ap_int_baseILi512ELb0ELb0EE8to_ulongEv", metadata !64, i32 2609, metadata !237, i1 false, i1 false, i32 0, i32 0, null, i32 256, i1 false, null, null, i32 0, metadata !76, i32 2609} ; [ DW_TAG_subprogram ]
!237 = metadata !{i32 786453, i32 0, metadata !"", i32 0, i32 0, i64 0, i64 0, i64 0, i32 0, null, metadata !238, i32 0, i32 0} ; [ DW_TAG_subroutine_type ]
!238 = metadata !{metadata !134, metadata !219}
!239 = metadata !{i32 786478, i32 0, metadata !63, metadata !"to_int64", metadata !"to_int64", metadata !"_ZNK11ap_int_baseILi512ELb0ELb0EE8to_int64Ev", metadata !64, i32 2610, metadata !240, i1 false, i1 false, i32 0, i32 0, null, i32 256, i1 false, null, null, i32 0, metadata !76, i32 2610} ; [ DW_TAG_subprogram ]
!240 = metadata !{i32 786453, i32 0, metadata !"", i32 0, i32 0, i64 0, i64 0, i64 0, i32 0, null, metadata !241, i32 0, i32 0} ; [ DW_TAG_subroutine_type ]
!241 = metadata !{metadata !138, metadata !219}
!242 = metadata !{i32 786478, i32 0, metadata !63, metadata !"to_uint64", metadata !"to_uint64", metadata !"_ZNK11ap_int_baseILi512ELb0ELb0EE9to_uint64Ev", metadata !64, i32 2611, metadata !243, i1 false, i1 false, i32 0, i32 0, null, i32 256, i1 false, null, null, i32 0, metadata !76, i32 2611} ; [ DW_TAG_subprogram ]
!243 = metadata !{i32 786453, i32 0, metadata !"", i32 0, i32 0, i64 0, i64 0, i64 0, i32 0, null, metadata !244, i32 0, i32 0} ; [ DW_TAG_subroutine_type ]
!244 = metadata !{metadata !143, metadata !219}
!245 = metadata !{i32 786478, i32 0, metadata !63, metadata !"to_double", metadata !"to_double", metadata !"_ZNK11ap_int_baseILi512ELb0ELb0EE9to_doubleEv", metadata !64, i32 2612, metadata !246, i1 false, i1 false, i32 0, i32 0, null, i32 256, i1 false, null, null, i32 0, metadata !76, i32 2612} ; [ DW_TAG_subprogram ]
!246 = metadata !{i32 786453, i32 0, metadata !"", i32 0, i32 0, i64 0, i64 0, i64 0, i32 0, null, metadata !247, i32 0, i32 0} ; [ DW_TAG_subroutine_type ]
!247 = metadata !{metadata !152, metadata !219}
!248 = metadata !{i32 786478, i32 0, metadata !63, metadata !"length", metadata !"length", metadata !"_ZNK11ap_int_baseILi512ELb0ELb0EE6lengthEv", metadata !64, i32 2625, metadata !228, i1 false, i1 false, i32 0, i32 0, null, i32 256, i1 false, null, null, i32 0, metadata !76, i32 2625} ; [ DW_TAG_subprogram ]
!249 = metadata !{i32 786478, i32 0, metadata !63, metadata !"length", metadata !"length", metadata !"_ZNVK11ap_int_baseILi512ELb0ELb0EE6lengthEv", metadata !64, i32 2626, metadata !250, i1 false, i1 false, i32 0, i32 0, null, i32 256, i1 false, null, null, i32 0, metadata !76, i32 2626} ; [ DW_TAG_subprogram ]
!250 = metadata !{i32 786453, i32 0, metadata !"", i32 0, i32 0, i64 0, i64 0, i64 0, i32 0, null, metadata !251, i32 0, i32 0} ; [ DW_TAG_subroutine_type ]
!251 = metadata !{metadata !80, metadata !252}
!252 = metadata !{i32 786447, i32 0, metadata !"", i32 0, i32 0, i64 64, i64 64, i64 0, i32 64, metadata !99} ; [ DW_TAG_pointer_type ]
!253 = metadata !{i32 786478, i32 0, metadata !63, metadata !"reverse", metadata !"reverse", metadata !"_ZN11ap_int_baseILi512ELb0ELb0EE7reverseEv", metadata !64, i32 2631, metadata !254, i1 false, i1 false, i32 0, i32 0, null, i32 256, i1 false, null, null, i32 0, metadata !76, i32 2631} ; [ DW_TAG_subprogram ]
!254 = metadata !{i32 786453, i32 0, metadata !"", i32 0, i32 0, i64 0, i64 0, i64 0, i32 0, null, metadata !255, i32 0, i32 0} ; [ DW_TAG_subroutine_type ]
!255 = metadata !{metadata !176, metadata !86}
!256 = metadata !{i32 786478, i32 0, metadata !63, metadata !"iszero", metadata !"iszero", metadata !"_ZNK11ap_int_baseILi512ELb0ELb0EE6iszeroEv", metadata !64, i32 2637, metadata !221, i1 false, i1 false, i32 0, i32 0, null, i32 256, i1 false, null, null, i32 0, metadata !76, i32 2637} ; [ DW_TAG_subprogram ]
!257 = metadata !{i32 786478, i32 0, metadata !63, metadata !"is_zero", metadata !"is_zero", metadata !"_ZNK11ap_int_baseILi512ELb0ELb0EE7is_zeroEv", metadata !64, i32 2642, metadata !221, i1 false, i1 false, i32 0, i32 0, null, i32 256, i1 false, null, null, i32 0, metadata !76, i32 2642} ; [ DW_TAG_subprogram ]
!258 = metadata !{i32 786478, i32 0, metadata !63, metadata !"sign", metadata !"sign", metadata !"_ZNK11ap_int_baseILi512ELb0ELb0EE4signEv", metadata !64, i32 2647, metadata !221, i1 false, i1 false, i32 0, i32 0, null, i32 256, i1 false, null, null, i32 0, metadata !76, i32 2647} ; [ DW_TAG_subprogram ]
!259 = metadata !{i32 786478, i32 0, metadata !63, metadata !"clear", metadata !"clear", metadata !"_ZN11ap_int_baseILi512ELb0ELb0EE5clearEi", metadata !64, i32 2655, metadata !121, i1 false, i1 false, i32 0, i32 0, null, i32 256, i1 false, null, null, i32 0, metadata !76, i32 2655} ; [ DW_TAG_subprogram ]
!260 = metadata !{i32 786478, i32 0, metadata !63, metadata !"invert", metadata !"invert", metadata !"_ZN11ap_int_baseILi512ELb0ELb0EE6invertEi", metadata !64, i32 2661, metadata !121, i1 false, i1 false, i32 0, i32 0, null, i32 256, i1 false, null, null, i32 0, metadata !76, i32 2661} ; [ DW_TAG_subprogram ]
!261 = metadata !{i32 786478, i32 0, metadata !63, metadata !"test", metadata !"test", metadata !"_ZNK11ap_int_baseILi512ELb0ELb0EE4testEi", metadata !64, i32 2669, metadata !262, i1 false, i1 false, i32 0, i32 0, null, i32 256, i1 false, null, null, i32 0, metadata !76, i32 2669} ; [ DW_TAG_subprogram ]
!262 = metadata !{i32 786453, i32 0, metadata !"", i32 0, i32 0, i64 0, i64 0, i64 0, i32 0, null, metadata !263, i32 0, i32 0} ; [ DW_TAG_subroutine_type ]
!263 = metadata !{metadata !82, metadata !219, metadata !80}
!264 = metadata !{i32 786478, i32 0, metadata !63, metadata !"set", metadata !"set", metadata !"_ZN11ap_int_baseILi512ELb0ELb0EE3setEi", metadata !64, i32 2675, metadata !121, i1 false, i1 false, i32 0, i32 0, null, i32 256, i1 false, null, null, i32 0, metadata !76, i32 2675} ; [ DW_TAG_subprogram ]
!265 = metadata !{i32 786478, i32 0, metadata !63, metadata !"set", metadata !"set", metadata !"_ZN11ap_int_baseILi512ELb0ELb0EE3setEib", metadata !64, i32 2681, metadata !266, i1 false, i1 false, i32 0, i32 0, null, i32 256, i1 false, null, null, i32 0, metadata !76, i32 2681} ; [ DW_TAG_subprogram ]
!266 = metadata !{i32 786453, i32 0, metadata !"", i32 0, i32 0, i64 0, i64 0, i64 0, i32 0, null, metadata !267, i32 0, i32 0} ; [ DW_TAG_subroutine_type ]
!267 = metadata !{null, metadata !86, metadata !80, metadata !82}
!268 = metadata !{i32 786478, i32 0, metadata !63, metadata !"lrotate", metadata !"lrotate", metadata !"_ZN11ap_int_baseILi512ELb0ELb0EE7lrotateEi", metadata !64, i32 2688, metadata !121, i1 false, i1 false, i32 0, i32 0, null, i32 256, i1 false, null, null, i32 0, metadata !76, i32 2688} ; [ DW_TAG_subprogram ]
!269 = metadata !{i32 786478, i32 0, metadata !63, metadata !"rrotate", metadata !"rrotate", metadata !"_ZN11ap_int_baseILi512ELb0ELb0EE7rrotateEi", metadata !64, i32 2697, metadata !121, i1 false, i1 false, i32 0, i32 0, null, i32 256, i1 false, null, null, i32 0, metadata !76, i32 2697} ; [ DW_TAG_subprogram ]
!270 = metadata !{i32 786478, i32 0, metadata !63, metadata !"set_bit", metadata !"set_bit", metadata !"_ZN11ap_int_baseILi512ELb0ELb0EE7set_bitEib", metadata !64, i32 2705, metadata !266, i1 false, i1 false, i32 0, i32 0, null, i32 256, i1 false, null, null, i32 0, metadata !76, i32 2705} ; [ DW_TAG_subprogram ]
!271 = metadata !{i32 786478, i32 0, metadata !63, metadata !"get_bit", metadata !"get_bit", metadata !"_ZNK11ap_int_baseILi512ELb0ELb0EE7get_bitEi", metadata !64, i32 2710, metadata !262, i1 false, i1 false, i32 0, i32 0, null, i32 256, i1 false, null, null, i32 0, metadata !76, i32 2710} ; [ DW_TAG_subprogram ]
!272 = metadata !{i32 786478, i32 0, metadata !63, metadata !"b_not", metadata !"b_not", metadata !"_ZN11ap_int_baseILi512ELb0ELb0EE5b_notEv", metadata !64, i32 2715, metadata !84, i1 false, i1 false, i32 0, i32 0, null, i32 256, i1 false, null, null, i32 0, metadata !76, i32 2715} ; [ DW_TAG_subprogram ]
!273 = metadata !{i32 786478, i32 0, metadata !63, metadata !"countLeadingZeros", metadata !"countLeadingZeros", metadata !"_ZN11ap_int_baseILi512ELb0ELb0EE17countLeadingZerosEv", metadata !64, i32 2722, metadata !274, i1 false, i1 false, i32 0, i32 0, null, i32 256, i1 false, null, null, i32 0, metadata !76, i32 2722} ; [ DW_TAG_subprogram ]
!274 = metadata !{i32 786453, i32 0, metadata !"", i32 0, i32 0, i64 0, i64 0, i64 0, i32 0, null, metadata !275, i32 0, i32 0} ; [ DW_TAG_subroutine_type ]
!275 = metadata !{metadata !80, metadata !86}
!276 = metadata !{i32 786478, i32 0, metadata !63, metadata !"operator++", metadata !"operator++", metadata !"_ZN11ap_int_baseILi512ELb0ELb0EEppEv", metadata !64, i32 2779, metadata !254, i1 false, i1 false, i32 0, i32 0, null, i32 256, i1 false, null, null, i32 0, metadata !76, i32 2779} ; [ DW_TAG_subprogram ]
!277 = metadata !{i32 786478, i32 0, metadata !63, metadata !"operator--", metadata !"operator--", metadata !"_ZN11ap_int_baseILi512ELb0ELb0EEmmEv", metadata !64, i32 2783, metadata !254, i1 false, i1 false, i32 0, i32 0, null, i32 256, i1 false, null, null, i32 0, metadata !76, i32 2783} ; [ DW_TAG_subprogram ]
!278 = metadata !{i32 786478, i32 0, metadata !63, metadata !"operator++", metadata !"operator++", metadata !"_ZN11ap_int_baseILi512ELb0ELb0EEppEi", metadata !64, i32 2791, metadata !279, i1 false, i1 false, i32 0, i32 0, null, i32 256, i1 false, null, null, i32 0, metadata !76, i32 2791} ; [ DW_TAG_subprogram ]
!279 = metadata !{i32 786453, i32 0, metadata !"", i32 0, i32 0, i64 0, i64 0, i64 0, i32 0, null, metadata !280, i32 0, i32 0} ; [ DW_TAG_subroutine_type ]
!280 = metadata !{metadata !91, metadata !86, metadata !80}
!281 = metadata !{i32 786478, i32 0, metadata !63, metadata !"operator--", metadata !"operator--", metadata !"_ZN11ap_int_baseILi512ELb0ELb0EEmmEi", metadata !64, i32 2796, metadata !279, i1 false, i1 false, i32 0, i32 0, null, i32 256, i1 false, null, null, i32 0, metadata !76, i32 2796} ; [ DW_TAG_subprogram ]
!282 = metadata !{i32 786478, i32 0, metadata !63, metadata !"operator+", metadata !"operator+", metadata !"_ZNK11ap_int_baseILi512ELb0ELb0EEpsEv", metadata !64, i32 2805, metadata !283, i1 false, i1 false, i32 0, i32 0, null, i32 256, i1 false, null, null, i32 0, metadata !76, i32 2805} ; [ DW_TAG_subprogram ]
!283 = metadata !{i32 786453, i32 0, metadata !"", i32 0, i32 0, i64 0, i64 0, i64 0, i32 0, null, metadata !284, i32 0, i32 0} ; [ DW_TAG_subroutine_type ]
!284 = metadata !{metadata !63, metadata !219}
!285 = metadata !{i32 786478, i32 0, metadata !63, metadata !"operator-", metadata !"operator-", metadata !"_ZNK11ap_int_baseILi512ELb0ELb0EEngEv", metadata !64, i32 2809, metadata !286, i1 false, i1 false, i32 0, i32 0, null, i32 256, i1 false, null, null, i32 0, metadata !76, i32 2809} ; [ DW_TAG_subprogram ]
!286 = metadata !{i32 786453, i32 0, metadata !"", i32 0, i32 0, i64 0, i64 0, i64 0, i32 0, null, metadata !287, i32 0, i32 0} ; [ DW_TAG_subroutine_type ]
!287 = metadata !{metadata !288, metadata !219}
!288 = metadata !{i32 786454, metadata !289, metadata !"minus", metadata !64, i32 2368, i64 0, i64 0, i64 0, i32 0, metadata !292} ; [ DW_TAG_typedef ]
!289 = metadata !{i32 786434, metadata !63, metadata !"RType<1, false>", metadata !64, i32 2350, i64 8, i64 8, i32 0, i32 0, null, metadata !216, i32 0, null, metadata !290} ; [ DW_TAG_class_type ]
!290 = metadata !{metadata !291, metadata !94}
!291 = metadata !{i32 786480, null, metadata !"_AP_W2", metadata !80, i64 1, null, i32 0, i32 0} ; [ DW_TAG_template_value_parameter ]
!292 = metadata !{i32 786434, null, metadata !"ap_int_base<513, true, false>", metadata !64, i32 650, i32 0, i32 0, i32 0, i32 4, null, null, i32 0} ; [ DW_TAG_class_type ]
!293 = metadata !{i32 786478, i32 0, metadata !63, metadata !"operator!", metadata !"operator!", metadata !"_ZNK11ap_int_baseILi512ELb0ELb0EEntEv", metadata !64, i32 2816, metadata !221, i1 false, i1 false, i32 0, i32 0, null, i32 256, i1 false, null, null, i32 0, metadata !76, i32 2816} ; [ DW_TAG_subprogram ]
!294 = metadata !{i32 786478, i32 0, metadata !63, metadata !"operator~", metadata !"operator~", metadata !"_ZNK11ap_int_baseILi512ELb0ELb0EEcoEv", metadata !64, i32 2823, metadata !295, i1 false, i1 false, i32 0, i32 0, null, i32 256, i1 false, null, null, i32 0, metadata !76, i32 2823} ; [ DW_TAG_subprogram ]
!295 = metadata !{i32 786453, i32 0, metadata !"", i32 0, i32 0, i64 0, i64 0, i64 0, i32 0, null, metadata !296, i32 0, i32 0} ; [ DW_TAG_subroutine_type ]
!296 = metadata !{metadata !292, metadata !219}
!297 = metadata !{i32 786478, i32 0, metadata !63, metadata !"range", metadata !"range", metadata !"_ZN11ap_int_baseILi512ELb0ELb0EE5rangeEii", metadata !64, i32 2950, metadata !298, i1 false, i1 false, i32 0, i32 0, null, i32 256, i1 false, null, null, i32 0, metadata !76, i32 2950} ; [ DW_TAG_subprogram ]
!298 = metadata !{i32 786453, i32 0, metadata !"", i32 0, i32 0, i64 0, i64 0, i64 0, i32 0, null, metadata !299, i32 0, i32 0} ; [ DW_TAG_subroutine_type ]
!299 = metadata !{metadata !300, metadata !86, metadata !80, metadata !80}
!300 = metadata !{i32 786434, null, metadata !"ap_range_ref<512, false>", metadata !64, i32 923, i32 0, i32 0, i32 0, i32 4, null, null, i32 0} ; [ DW_TAG_class_type ]
!301 = metadata !{i32 786478, i32 0, metadata !63, metadata !"operator()", metadata !"operator()", metadata !"_ZN11ap_int_baseILi512ELb0ELb0EEclEii", metadata !64, i32 2956, metadata !298, i1 false, i1 false, i32 0, i32 0, null, i32 256, i1 false, null, null, i32 0, metadata !76, i32 2956} ; [ DW_TAG_subprogram ]
!302 = metadata !{i32 786478, i32 0, metadata !63, metadata !"range", metadata !"range", metadata !"_ZNK11ap_int_baseILi512ELb0ELb0EE5rangeEii", metadata !64, i32 2962, metadata !303, i1 false, i1 false, i32 0, i32 0, null, i32 256, i1 false, null, null, i32 0, metadata !76, i32 2962} ; [ DW_TAG_subprogram ]
!303 = metadata !{i32 786453, i32 0, metadata !"", i32 0, i32 0, i64 0, i64 0, i64 0, i32 0, null, metadata !304, i32 0, i32 0} ; [ DW_TAG_subroutine_type ]
!304 = metadata !{metadata !300, metadata !219, metadata !80, metadata !80}
!305 = metadata !{i32 786478, i32 0, metadata !63, metadata !"operator()", metadata !"operator()", metadata !"_ZNK11ap_int_baseILi512ELb0ELb0EEclEii", metadata !64, i32 2968, metadata !303, i1 false, i1 false, i32 0, i32 0, null, i32 256, i1 false, null, null, i32 0, metadata !76, i32 2968} ; [ DW_TAG_subprogram ]
!306 = metadata !{i32 786478, i32 0, metadata !63, metadata !"operator[]", metadata !"operator[]", metadata !"_ZN11ap_int_baseILi512ELb0ELb0EEixEi", metadata !64, i32 2988, metadata !307, i1 false, i1 false, i32 0, i32 0, null, i32 256, i1 false, null, null, i32 0, metadata !76, i32 2988} ; [ DW_TAG_subprogram ]
!307 = metadata !{i32 786453, i32 0, metadata !"", i32 0, i32 0, i64 0, i64 0, i64 0, i32 0, null, metadata !308, i32 0, i32 0} ; [ DW_TAG_subroutine_type ]
!308 = metadata !{metadata !309, metadata !86, metadata !80}
!309 = metadata !{i32 786434, null, metadata !"ap_bit_ref<512, false>", metadata !64, i32 1193, i32 0, i32 0, i32 0, i32 4, null, null, i32 0} ; [ DW_TAG_class_type ]
!310 = metadata !{i32 786478, i32 0, metadata !63, metadata !"operator[]", metadata !"operator[]", metadata !"_ZNK11ap_int_baseILi512ELb0ELb0EEixEi", metadata !64, i32 3002, metadata !262, i1 false, i1 false, i32 0, i32 0, null, i32 256, i1 false, null, null, i32 0, metadata !76, i32 3002} ; [ DW_TAG_subprogram ]
!311 = metadata !{i32 786478, i32 0, metadata !63, metadata !"bit", metadata !"bit", metadata !"_ZN11ap_int_baseILi512ELb0ELb0EE3bitEi", metadata !64, i32 3016, metadata !307, i1 false, i1 false, i32 0, i32 0, null, i32 256, i1 false, null, null, i32 0, metadata !76, i32 3016} ; [ DW_TAG_subprogram ]
!312 = metadata !{i32 786478, i32 0, metadata !63, metadata !"bit", metadata !"bit", metadata !"_ZNK11ap_int_baseILi512ELb0ELb0EE3bitEi", metadata !64, i32 3030, metadata !262, i1 false, i1 false, i32 0, i32 0, null, i32 256, i1 false, null, null, i32 0, metadata !76, i32 3030} ; [ DW_TAG_subprogram ]
!313 = metadata !{i32 786478, i32 0, metadata !63, metadata !"and_reduce", metadata !"and_reduce", metadata !"_ZN11ap_int_baseILi512ELb0ELb0EE10and_reduceEv", metadata !64, i32 3210, metadata !314, i1 false, i1 false, i32 0, i32 0, null, i32 256, i1 false, null, null, i32 0, metadata !76, i32 3210} ; [ DW_TAG_subprogram ]
!314 = metadata !{i32 786453, i32 0, metadata !"", i32 0, i32 0, i64 0, i64 0, i64 0, i32 0, null, metadata !315, i32 0, i32 0} ; [ DW_TAG_subroutine_type ]
!315 = metadata !{metadata !82, metadata !86}
!316 = metadata !{i32 786478, i32 0, metadata !63, metadata !"nand_reduce", metadata !"nand_reduce", metadata !"_ZN11ap_int_baseILi512ELb0ELb0EE11nand_reduceEv", metadata !64, i32 3213, metadata !314, i1 false, i1 false, i32 0, i32 0, null, i32 256, i1 false, null, null, i32 0, metadata !76, i32 3213} ; [ DW_TAG_subprogram ]
!317 = metadata !{i32 786478, i32 0, metadata !63, metadata !"or_reduce", metadata !"or_reduce", metadata !"_ZN11ap_int_baseILi512ELb0ELb0EE9or_reduceEv", metadata !64, i32 3216, metadata !314, i1 false, i1 false, i32 0, i32 0, null, i32 256, i1 false, null, null, i32 0, metadata !76, i32 3216} ; [ DW_TAG_subprogram ]
!318 = metadata !{i32 786478, i32 0, metadata !63, metadata !"nor_reduce", metadata !"nor_reduce", metadata !"_ZN11ap_int_baseILi512ELb0ELb0EE10nor_reduceEv", metadata !64, i32 3219, metadata !314, i1 false, i1 false, i32 0, i32 0, null, i32 256, i1 false, null, null, i32 0, metadata !76, i32 3219} ; [ DW_TAG_subprogram ]
!319 = metadata !{i32 786478, i32 0, metadata !63, metadata !"xor_reduce", metadata !"xor_reduce", metadata !"_ZN11ap_int_baseILi512ELb0ELb0EE10xor_reduceEv", metadata !64, i32 3222, metadata !314, i1 false, i1 false, i32 0, i32 0, null, i32 256, i1 false, null, null, i32 0, metadata !76, i32 3222} ; [ DW_TAG_subprogram ]
!320 = metadata !{i32 786478, i32 0, metadata !63, metadata !"xnor_reduce", metadata !"xnor_reduce", metadata !"_ZN11ap_int_baseILi512ELb0ELb0EE11xnor_reduceEv", metadata !64, i32 3225, metadata !314, i1 false, i1 false, i32 0, i32 0, null, i32 256, i1 false, null, null, i32 0, metadata !76, i32 3225} ; [ DW_TAG_subprogram ]
!321 = metadata !{i32 786478, i32 0, metadata !63, metadata !"and_reduce", metadata !"and_reduce", metadata !"_ZNK11ap_int_baseILi512ELb0ELb0EE10and_reduceEv", metadata !64, i32 3229, metadata !221, i1 false, i1 false, i32 0, i32 0, null, i32 256, i1 false, null, null, i32 0, metadata !76, i32 3229} ; [ DW_TAG_subprogram ]
!322 = metadata !{i32 786478, i32 0, metadata !63, metadata !"nand_reduce", metadata !"nand_reduce", metadata !"_ZNK11ap_int_baseILi512ELb0ELb0EE11nand_reduceEv", metadata !64, i32 3232, metadata !221, i1 false, i1 false, i32 0, i32 0, null, i32 256, i1 false, null, null, i32 0, metadata !76, i32 3232} ; [ DW_TAG_subprogram ]
!323 = metadata !{i32 786478, i32 0, metadata !63, metadata !"or_reduce", metadata !"or_reduce", metadata !"_ZNK11ap_int_baseILi512ELb0ELb0EE9or_reduceEv", metadata !64, i32 3235, metadata !221, i1 false, i1 false, i32 0, i32 0, null, i32 256, i1 false, null, null, i32 0, metadata !76, i32 3235} ; [ DW_TAG_subprogram ]
!324 = metadata !{i32 786478, i32 0, metadata !63, metadata !"nor_reduce", metadata !"nor_reduce", metadata !"_ZNK11ap_int_baseILi512ELb0ELb0EE10nor_reduceEv", metadata !64, i32 3238, metadata !221, i1 false, i1 false, i32 0, i32 0, null, i32 256, i1 false, null, null, i32 0, metadata !76, i32 3238} ; [ DW_TAG_subprogram ]
!325 = metadata !{i32 786478, i32 0, metadata !63, metadata !"xor_reduce", metadata !"xor_reduce", metadata !"_ZNK11ap_int_baseILi512ELb0ELb0EE10xor_reduceEv", metadata !64, i32 3241, metadata !221, i1 false, i1 false, i32 0, i32 0, null, i32 256, i1 false, null, null, i32 0, metadata !76, i32 3241} ; [ DW_TAG_subprogram ]
!326 = metadata !{i32 786478, i32 0, metadata !63, metadata !"xnor_reduce", metadata !"xnor_reduce", metadata !"_ZNK11ap_int_baseILi512ELb0ELb0EE11xnor_reduceEv", metadata !64, i32 3244, metadata !221, i1 false, i1 false, i32 0, i32 0, null, i32 256, i1 false, null, null, i32 0, metadata !76, i32 3244} ; [ DW_TAG_subprogram ]
!327 = metadata !{i32 786478, i32 0, metadata !63, metadata !"to_string", metadata !"to_string", metadata !"_ZNK11ap_int_baseILi512ELb0ELb0EE9to_stringEPci8BaseModeb", metadata !64, i32 3251, metadata !328, i1 false, i1 false, i32 0, i32 0, null, i32 256, i1 false, null, null, i32 0, metadata !76, i32 3251} ; [ DW_TAG_subprogram ]
!328 = metadata !{i32 786453, i32 0, metadata !"", i32 0, i32 0, i64 0, i64 0, i64 0, i32 0, null, metadata !329, i32 0, i32 0} ; [ DW_TAG_subroutine_type ]
!329 = metadata !{null, metadata !219, metadata !330, metadata !80, metadata !331, metadata !82}
!330 = metadata !{i32 786447, null, metadata !"", null, i32 0, i64 64, i64 64, i64 0, i32 0, metadata !158} ; [ DW_TAG_pointer_type ]
!331 = metadata !{i32 786436, null, metadata !"BaseMode", metadata !64, i32 602, i64 5, i64 8, i32 0, i32 0, null, metadata !332, i32 0, i32 0} ; [ DW_TAG_enumeration_type ]
!332 = metadata !{metadata !333, metadata !334, metadata !335, metadata !336}
!333 = metadata !{i32 786472, metadata !"SC_BIN", i64 2} ; [ DW_TAG_enumerator ]
!334 = metadata !{i32 786472, metadata !"SC_OCT", i64 8} ; [ DW_TAG_enumerator ]
!335 = metadata !{i32 786472, metadata !"SC_DEC", i64 10} ; [ DW_TAG_enumerator ]
!336 = metadata !{i32 786472, metadata !"SC_HEX", i64 16} ; [ DW_TAG_enumerator ]
!337 = metadata !{i32 786478, i32 0, metadata !63, metadata !"to_string", metadata !"to_string", metadata !"_ZNK11ap_int_baseILi512ELb0ELb0EE9to_stringE8BaseModeb", metadata !64, i32 3278, metadata !338, i1 false, i1 false, i32 0, i32 0, null, i32 256, i1 false, null, null, i32 0, metadata !76, i32 3278} ; [ DW_TAG_subprogram ]
!338 = metadata !{i32 786453, i32 0, metadata !"", i32 0, i32 0, i64 0, i64 0, i64 0, i32 0, null, metadata !339, i32 0, i32 0} ; [ DW_TAG_subroutine_type ]
!339 = metadata !{metadata !330, metadata !219, metadata !331, metadata !82}
!340 = metadata !{i32 786478, i32 0, metadata !63, metadata !"to_string", metadata !"to_string", metadata !"_ZNK11ap_int_baseILi512ELb0ELb0EE9to_stringEab", metadata !64, i32 3282, metadata !341, i1 false, i1 false, i32 0, i32 0, null, i32 256, i1 false, null, null, i32 0, metadata !76, i32 3282} ; [ DW_TAG_subprogram ]
!341 = metadata !{i32 786453, i32 0, metadata !"", i32 0, i32 0, i64 0, i64 0, i64 0, i32 0, null, metadata !342, i32 0, i32 0} ; [ DW_TAG_subroutine_type ]
!342 = metadata !{metadata !330, metadata !219, metadata !107, metadata !82}
!343 = metadata !{metadata !344, metadata !81, metadata !345}
!344 = metadata !{i32 786480, null, metadata !"_AP_W", metadata !80, i64 512, null, i32 0, i32 0} ; [ DW_TAG_template_value_parameter ]
!345 = metadata !{i32 786480, null, metadata !"_AP_C", metadata !82, i64 0, null, i32 0, i32 0} ; [ DW_TAG_template_value_parameter ]
!346 = metadata !{i32 786478, i32 0, metadata !59, metadata !"ap_uint", metadata !"ap_uint", metadata !"", metadata !60, i32 183, metadata !347, i1 false, i1 false, i32 0, i32 0, null, i32 256, i1 false, null, null, i32 0, metadata !76, i32 183} ; [ DW_TAG_subprogram ]
!347 = metadata !{i32 786453, i32 0, metadata !"", i32 0, i32 0, i64 0, i64 0, i64 0, i32 0, null, metadata !348, i32 0, i32 0} ; [ DW_TAG_subroutine_type ]
!348 = metadata !{null, metadata !349}
!349 = metadata !{i32 786447, i32 0, metadata !"", i32 0, i32 0, i64 64, i64 64, i64 0, i32 64, metadata !59} ; [ DW_TAG_pointer_type ]
!350 = metadata !{i32 786478, i32 0, metadata !59, metadata !"ap_uint<514, true>", metadata !"ap_uint<514, true>", metadata !"", metadata !60, i32 226, metadata !351, i1 false, i1 false, i32 0, i32 0, null, i32 256, i1 false, null, metadata !376, i32 0, metadata !76, i32 226} ; [ DW_TAG_subprogram ]
!351 = metadata !{i32 786453, i32 0, metadata !"", i32 0, i32 0, i64 0, i64 0, i64 0, i32 0, null, metadata !352, i32 0, i32 0} ; [ DW_TAG_subroutine_type ]
!352 = metadata !{null, metadata !349, metadata !353}
!353 = metadata !{i32 786448, null, null, null, i32 0, i64 0, i64 0, i64 0, i32 0, metadata !354} ; [ DW_TAG_reference_type ]
!354 = metadata !{i32 786470, null, metadata !"", null, i32 0, i64 0, i64 0, i64 0, i32 0, metadata !355} ; [ DW_TAG_const_type ]
!355 = metadata !{i32 786434, null, metadata !"ap_int_base<514, true, false>", metadata !64, i32 2341, i64 576, i64 64, i32 0, i32 0, null, metadata !356, i32 0, null, metadata !599} ; [ DW_TAG_class_type ]
!356 = metadata !{metadata !357, metadata !369, metadata !373, metadata !379, metadata !385, metadata !388, metadata !391, metadata !394, metadata !397, metadata !400, metadata !403, metadata !406, metadata !409, metadata !412, metadata !415, metadata !418, metadata !421, metadata !424, metadata !427, metadata !430, metadata !434, metadata !437, metadata !440, metadata !441, metadata !445, metadata !448, metadata !451, metadata !454, metadata !457, metadata !460, metadata !463, metadata !466, metadata !469, metadata !472, metadata !475, metadata !478, metadata !486, metadata !489, metadata !490, metadata !491, metadata !492, metadata !493, metadata !496, metadata !499, metadata !502, metadata !505, metadata !508, metadata !511, metadata !514, metadata !515, metadata !519, metadata !522, metadata !523, metadata !524, metadata !525, metadata !526, metadata !527, metadata !530, metadata !531, metadata !534, metadata !535, metadata !536, metadata !537, metadata !538, metadata !539, metadata !542, metadata !543, metadata !544, metadata !547, metadata !548, metadata !551, metadata !557, metadata !558, metadata !559, metadata !563, metadata !564, metadata !567, metadata !568, metadata !572, metadata !573, metadata !574, metadata !575, metadata !578, metadata !579, metadata !580, metadata !581, metadata !582, metadata !583, metadata !584, metadata !585, metadata !586, metadata !587, metadata !588, metadata !589, metadata !592, metadata !595, metadata !598}
!357 = metadata !{i32 786460, metadata !355, null, metadata !64, i32 0, i64 0, i64 0, i64 0, i32 0, metadata !358} ; [ DW_TAG_inheritance ]
!358 = metadata !{i32 786434, null, metadata !"ssdm_int<514 + 1024 * 0, true>", metadata !68, i32 528, i64 576, i64 64, i32 0, i32 0, null, metadata !359, i32 0, null, metadata !366} ; [ DW_TAG_class_type ]
!359 = metadata !{metadata !360, metadata !362}
!360 = metadata !{i32 786445, metadata !358, metadata !"V", metadata !68, i32 528, i64 514, i64 64, i64 0, i32 0, metadata !361} ; [ DW_TAG_member ]
!361 = metadata !{i32 786468, null, metadata !"int514", null, i32 0, i64 514, i64 64, i64 0, i32 0, i32 5} ; [ DW_TAG_base_type ]
!362 = metadata !{i32 786478, i32 0, metadata !358, metadata !"ssdm_int", metadata !"ssdm_int", metadata !"", metadata !68, i32 528, metadata !363, i1 false, i1 false, i32 0, i32 0, null, i32 256, i1 false, null, null, i32 0, metadata !76, i32 528} ; [ DW_TAG_subprogram ]
!363 = metadata !{i32 786453, i32 0, metadata !"", i32 0, i32 0, i64 0, i64 0, i64 0, i32 0, null, metadata !364, i32 0, i32 0} ; [ DW_TAG_subroutine_type ]
!364 = metadata !{null, metadata !365}
!365 = metadata !{i32 786447, i32 0, metadata !"", i32 0, i32 0, i64 64, i64 64, i64 0, i32 64, metadata !358} ; [ DW_TAG_pointer_type ]
!366 = metadata !{metadata !367, metadata !368}
!367 = metadata !{i32 786480, null, metadata !"_AP_N", metadata !80, i64 514, null, i32 0, i32 0} ; [ DW_TAG_template_value_parameter ]
!368 = metadata !{i32 786480, null, metadata !"_AP_S", metadata !82, i64 1, null, i32 0, i32 0} ; [ DW_TAG_template_value_parameter ]
!369 = metadata !{i32 786478, i32 0, metadata !355, metadata !"ap_int_base", metadata !"ap_int_base", metadata !"", metadata !64, i32 2379, metadata !370, i1 false, i1 false, i32 0, i32 0, null, i32 256, i1 false, null, null, i32 0, metadata !76, i32 2379} ; [ DW_TAG_subprogram ]
!370 = metadata !{i32 786453, i32 0, metadata !"", i32 0, i32 0, i64 0, i64 0, i64 0, i32 0, null, metadata !371, i32 0, i32 0} ; [ DW_TAG_subroutine_type ]
!371 = metadata !{null, metadata !372}
!372 = metadata !{i32 786447, i32 0, metadata !"", i32 0, i32 0, i64 64, i64 64, i64 0, i32 64, metadata !355} ; [ DW_TAG_pointer_type ]
!373 = metadata !{i32 786478, i32 0, metadata !355, metadata !"ap_int_base<514, true>", metadata !"ap_int_base<514, true>", metadata !"", metadata !64, i32 2391, metadata !374, i1 false, i1 false, i32 0, i32 0, null, i32 256, i1 false, null, metadata !376, i32 0, metadata !76, i32 2391} ; [ DW_TAG_subprogram ]
!374 = metadata !{i32 786453, i32 0, metadata !"", i32 0, i32 0, i64 0, i64 0, i64 0, i32 0, null, metadata !375, i32 0, i32 0} ; [ DW_TAG_subroutine_type ]
!375 = metadata !{null, metadata !372, metadata !353}
!376 = metadata !{metadata !377, metadata !378}
!377 = metadata !{i32 786480, null, metadata !"_AP_W2", metadata !80, i64 514, null, i32 0, i32 0} ; [ DW_TAG_template_value_parameter ]
!378 = metadata !{i32 786480, null, metadata !"_AP_S2", metadata !82, i64 1, null, i32 0, i32 0} ; [ DW_TAG_template_value_parameter ]
!379 = metadata !{i32 786478, i32 0, metadata !355, metadata !"ap_int_base<514, true>", metadata !"ap_int_base<514, true>", metadata !"", metadata !64, i32 2394, metadata !380, i1 false, i1 false, i32 0, i32 0, null, i32 256, i1 false, null, metadata !376, i32 0, metadata !76, i32 2394} ; [ DW_TAG_subprogram ]
!380 = metadata !{i32 786453, i32 0, metadata !"", i32 0, i32 0, i64 0, i64 0, i64 0, i32 0, null, metadata !381, i32 0, i32 0} ; [ DW_TAG_subroutine_type ]
!381 = metadata !{null, metadata !372, metadata !382}
!382 = metadata !{i32 786448, null, null, null, i32 0, i64 0, i64 0, i64 0, i32 0, metadata !383} ; [ DW_TAG_reference_type ]
!383 = metadata !{i32 786470, null, metadata !"", null, i32 0, i64 0, i64 0, i64 0, i32 0, metadata !384} ; [ DW_TAG_const_type ]
!384 = metadata !{i32 786485, null, metadata !"", null, i32 0, i64 0, i64 0, i64 0, i32 0, metadata !355} ; [ DW_TAG_volatile_type ]
!385 = metadata !{i32 786478, i32 0, metadata !355, metadata !"ap_int_base", metadata !"ap_int_base", metadata !"", metadata !64, i32 2401, metadata !386, i1 false, i1 false, i32 0, i32 0, null, i32 384, i1 false, null, null, i32 0, metadata !76, i32 2401} ; [ DW_TAG_subprogram ]
!386 = metadata !{i32 786453, i32 0, metadata !"", i32 0, i32 0, i64 0, i64 0, i64 0, i32 0, null, metadata !387, i32 0, i32 0} ; [ DW_TAG_subroutine_type ]
!387 = metadata !{null, metadata !372, metadata !82}
!388 = metadata !{i32 786478, i32 0, metadata !355, metadata !"ap_int_base", metadata !"ap_int_base", metadata !"", metadata !64, i32 2402, metadata !389, i1 false, i1 false, i32 0, i32 0, null, i32 384, i1 false, null, null, i32 0, metadata !76, i32 2402} ; [ DW_TAG_subprogram ]
!389 = metadata !{i32 786453, i32 0, metadata !"", i32 0, i32 0, i64 0, i64 0, i64 0, i32 0, null, metadata !390, i32 0, i32 0} ; [ DW_TAG_subroutine_type ]
!390 = metadata !{null, metadata !372, metadata !107}
!391 = metadata !{i32 786478, i32 0, metadata !355, metadata !"ap_int_base", metadata !"ap_int_base", metadata !"", metadata !64, i32 2403, metadata !392, i1 false, i1 false, i32 0, i32 0, null, i32 384, i1 false, null, null, i32 0, metadata !76, i32 2403} ; [ DW_TAG_subprogram ]
!392 = metadata !{i32 786453, i32 0, metadata !"", i32 0, i32 0, i64 0, i64 0, i64 0, i32 0, null, metadata !393, i32 0, i32 0} ; [ DW_TAG_subroutine_type ]
!393 = metadata !{null, metadata !372, metadata !111}
!394 = metadata !{i32 786478, i32 0, metadata !355, metadata !"ap_int_base", metadata !"ap_int_base", metadata !"", metadata !64, i32 2404, metadata !395, i1 false, i1 false, i32 0, i32 0, null, i32 384, i1 false, null, null, i32 0, metadata !76, i32 2404} ; [ DW_TAG_subprogram ]
!395 = metadata !{i32 786453, i32 0, metadata !"", i32 0, i32 0, i64 0, i64 0, i64 0, i32 0, null, metadata !396, i32 0, i32 0} ; [ DW_TAG_subroutine_type ]
!396 = metadata !{null, metadata !372, metadata !115}
!397 = metadata !{i32 786478, i32 0, metadata !355, metadata !"ap_int_base", metadata !"ap_int_base", metadata !"", metadata !64, i32 2405, metadata !398, i1 false, i1 false, i32 0, i32 0, null, i32 384, i1 false, null, null, i32 0, metadata !76, i32 2405} ; [ DW_TAG_subprogram ]
!398 = metadata !{i32 786453, i32 0, metadata !"", i32 0, i32 0, i64 0, i64 0, i64 0, i32 0, null, metadata !399, i32 0, i32 0} ; [ DW_TAG_subroutine_type ]
!399 = metadata !{null, metadata !372, metadata !119}
!400 = metadata !{i32 786478, i32 0, metadata !355, metadata !"ap_int_base", metadata !"ap_int_base", metadata !"", metadata !64, i32 2406, metadata !401, i1 false, i1 false, i32 0, i32 0, null, i32 384, i1 false, null, null, i32 0, metadata !76, i32 2406} ; [ DW_TAG_subprogram ]
!401 = metadata !{i32 786453, i32 0, metadata !"", i32 0, i32 0, i64 0, i64 0, i64 0, i32 0, null, metadata !402, i32 0, i32 0} ; [ DW_TAG_subroutine_type ]
!402 = metadata !{null, metadata !372, metadata !80}
!403 = metadata !{i32 786478, i32 0, metadata !355, metadata !"ap_int_base", metadata !"ap_int_base", metadata !"", metadata !64, i32 2407, metadata !404, i1 false, i1 false, i32 0, i32 0, null, i32 384, i1 false, null, null, i32 0, metadata !76, i32 2407} ; [ DW_TAG_subprogram ]
!404 = metadata !{i32 786453, i32 0, metadata !"", i32 0, i32 0, i64 0, i64 0, i64 0, i32 0, null, metadata !405, i32 0, i32 0} ; [ DW_TAG_subroutine_type ]
!405 = metadata !{null, metadata !372, metadata !126}
!406 = metadata !{i32 786478, i32 0, metadata !355, metadata !"ap_int_base", metadata !"ap_int_base", metadata !"", metadata !64, i32 2408, metadata !407, i1 false, i1 false, i32 0, i32 0, null, i32 384, i1 false, null, null, i32 0, metadata !76, i32 2408} ; [ DW_TAG_subprogram ]
!407 = metadata !{i32 786453, i32 0, metadata !"", i32 0, i32 0, i64 0, i64 0, i64 0, i32 0, null, metadata !408, i32 0, i32 0} ; [ DW_TAG_subroutine_type ]
!408 = metadata !{null, metadata !372, metadata !130}
!409 = metadata !{i32 786478, i32 0, metadata !355, metadata !"ap_int_base", metadata !"ap_int_base", metadata !"", metadata !64, i32 2409, metadata !410, i1 false, i1 false, i32 0, i32 0, null, i32 384, i1 false, null, null, i32 0, metadata !76, i32 2409} ; [ DW_TAG_subprogram ]
!410 = metadata !{i32 786453, i32 0, metadata !"", i32 0, i32 0, i64 0, i64 0, i64 0, i32 0, null, metadata !411, i32 0, i32 0} ; [ DW_TAG_subroutine_type ]
!411 = metadata !{null, metadata !372, metadata !134}
!412 = metadata !{i32 786478, i32 0, metadata !355, metadata !"ap_int_base", metadata !"ap_int_base", metadata !"", metadata !64, i32 2410, metadata !413, i1 false, i1 false, i32 0, i32 0, null, i32 384, i1 false, null, null, i32 0, metadata !76, i32 2410} ; [ DW_TAG_subprogram ]
!413 = metadata !{i32 786453, i32 0, metadata !"", i32 0, i32 0, i64 0, i64 0, i64 0, i32 0, null, metadata !414, i32 0, i32 0} ; [ DW_TAG_subroutine_type ]
!414 = metadata !{null, metadata !372, metadata !138}
!415 = metadata !{i32 786478, i32 0, metadata !355, metadata !"ap_int_base", metadata !"ap_int_base", metadata !"", metadata !64, i32 2411, metadata !416, i1 false, i1 false, i32 0, i32 0, null, i32 384, i1 false, null, null, i32 0, metadata !76, i32 2411} ; [ DW_TAG_subprogram ]
!416 = metadata !{i32 786453, i32 0, metadata !"", i32 0, i32 0, i64 0, i64 0, i64 0, i32 0, null, metadata !417, i32 0, i32 0} ; [ DW_TAG_subroutine_type ]
!417 = metadata !{null, metadata !372, metadata !143}
!418 = metadata !{i32 786478, i32 0, metadata !355, metadata !"ap_int_base", metadata !"ap_int_base", metadata !"", metadata !64, i32 2412, metadata !419, i1 false, i1 false, i32 0, i32 0, null, i32 384, i1 false, null, null, i32 0, metadata !76, i32 2412} ; [ DW_TAG_subprogram ]
!419 = metadata !{i32 786453, i32 0, metadata !"", i32 0, i32 0, i64 0, i64 0, i64 0, i32 0, null, metadata !420, i32 0, i32 0} ; [ DW_TAG_subroutine_type ]
!420 = metadata !{null, metadata !372, metadata !148}
!421 = metadata !{i32 786478, i32 0, metadata !355, metadata !"ap_int_base", metadata !"ap_int_base", metadata !"", metadata !64, i32 2413, metadata !422, i1 false, i1 false, i32 0, i32 0, null, i32 384, i1 false, null, null, i32 0, metadata !76, i32 2413} ; [ DW_TAG_subprogram ]
!422 = metadata !{i32 786453, i32 0, metadata !"", i32 0, i32 0, i64 0, i64 0, i64 0, i32 0, null, metadata !423, i32 0, i32 0} ; [ DW_TAG_subroutine_type ]
!423 = metadata !{null, metadata !372, metadata !152}
!424 = metadata !{i32 786478, i32 0, metadata !355, metadata !"ap_int_base", metadata !"ap_int_base", metadata !"", metadata !64, i32 2440, metadata !425, i1 false, i1 false, i32 0, i32 0, null, i32 256, i1 false, null, null, i32 0, metadata !76, i32 2440} ; [ DW_TAG_subprogram ]
!425 = metadata !{i32 786453, i32 0, metadata !"", i32 0, i32 0, i64 0, i64 0, i64 0, i32 0, null, metadata !426, i32 0, i32 0} ; [ DW_TAG_subroutine_type ]
!426 = metadata !{null, metadata !372, metadata !156}
!427 = metadata !{i32 786478, i32 0, metadata !355, metadata !"ap_int_base", metadata !"ap_int_base", metadata !"", metadata !64, i32 2447, metadata !428, i1 false, i1 false, i32 0, i32 0, null, i32 256, i1 false, null, null, i32 0, metadata !76, i32 2447} ; [ DW_TAG_subprogram ]
!428 = metadata !{i32 786453, i32 0, metadata !"", i32 0, i32 0, i64 0, i64 0, i64 0, i32 0, null, metadata !429, i32 0, i32 0} ; [ DW_TAG_subroutine_type ]
!429 = metadata !{null, metadata !372, metadata !156, metadata !107}
!430 = metadata !{i32 786478, i32 0, metadata !355, metadata !"read", metadata !"read", metadata !"_ZNV11ap_int_baseILi514ELb1ELb0EE4readEv", metadata !64, i32 2468, metadata !431, i1 false, i1 false, i32 0, i32 0, null, i32 256, i1 false, null, null, i32 0, metadata !76, i32 2468} ; [ DW_TAG_subprogram ]
!431 = metadata !{i32 786453, i32 0, metadata !"", i32 0, i32 0, i64 0, i64 0, i64 0, i32 0, null, metadata !432, i32 0, i32 0} ; [ DW_TAG_subroutine_type ]
!432 = metadata !{metadata !355, metadata !433}
!433 = metadata !{i32 786447, i32 0, metadata !"", i32 0, i32 0, i64 64, i64 64, i64 0, i32 64, metadata !384} ; [ DW_TAG_pointer_type ]
!434 = metadata !{i32 786478, i32 0, metadata !355, metadata !"write", metadata !"write", metadata !"_ZNV11ap_int_baseILi514ELb1ELb0EE5writeERKS0_", metadata !64, i32 2474, metadata !435, i1 false, i1 false, i32 0, i32 0, null, i32 256, i1 false, null, null, i32 0, metadata !76, i32 2474} ; [ DW_TAG_subprogram ]
!435 = metadata !{i32 786453, i32 0, metadata !"", i32 0, i32 0, i64 0, i64 0, i64 0, i32 0, null, metadata !436, i32 0, i32 0} ; [ DW_TAG_subroutine_type ]
!436 = metadata !{null, metadata !433, metadata !353}
!437 = metadata !{i32 786478, i32 0, metadata !355, metadata !"operator=", metadata !"operator=", metadata !"_ZNV11ap_int_baseILi514ELb1ELb0EEaSERVKS0_", metadata !64, i32 2486, metadata !438, i1 false, i1 false, i32 0, i32 0, null, i32 256, i1 false, null, null, i32 0, metadata !76, i32 2486} ; [ DW_TAG_subprogram ]
!438 = metadata !{i32 786453, i32 0, metadata !"", i32 0, i32 0, i64 0, i64 0, i64 0, i32 0, null, metadata !439, i32 0, i32 0} ; [ DW_TAG_subroutine_type ]
!439 = metadata !{null, metadata !433, metadata !382}
!440 = metadata !{i32 786478, i32 0, metadata !355, metadata !"operator=", metadata !"operator=", metadata !"_ZNV11ap_int_baseILi514ELb1ELb0EEaSERKS0_", metadata !64, i32 2495, metadata !435, i1 false, i1 false, i32 0, i32 0, null, i32 256, i1 false, null, null, i32 0, metadata !76, i32 2495} ; [ DW_TAG_subprogram ]
!441 = metadata !{i32 786478, i32 0, metadata !355, metadata !"operator=", metadata !"operator=", metadata !"_ZN11ap_int_baseILi514ELb1ELb0EEaSERVKS0_", metadata !64, i32 2518, metadata !442, i1 false, i1 false, i32 0, i32 0, null, i32 256, i1 false, null, null, i32 0, metadata !76, i32 2518} ; [ DW_TAG_subprogram ]
!442 = metadata !{i32 786453, i32 0, metadata !"", i32 0, i32 0, i64 0, i64 0, i64 0, i32 0, null, metadata !443, i32 0, i32 0} ; [ DW_TAG_subroutine_type ]
!443 = metadata !{metadata !444, metadata !372, metadata !382}
!444 = metadata !{i32 786448, null, null, null, i32 0, i64 0, i64 0, i64 0, i32 0, metadata !355} ; [ DW_TAG_reference_type ]
!445 = metadata !{i32 786478, i32 0, metadata !355, metadata !"operator=", metadata !"operator=", metadata !"_ZN11ap_int_baseILi514ELb1ELb0EEaSERKS0_", metadata !64, i32 2523, metadata !446, i1 false, i1 false, i32 0, i32 0, null, i32 256, i1 false, null, null, i32 0, metadata !76, i32 2523} ; [ DW_TAG_subprogram ]
!446 = metadata !{i32 786453, i32 0, metadata !"", i32 0, i32 0, i64 0, i64 0, i64 0, i32 0, null, metadata !447, i32 0, i32 0} ; [ DW_TAG_subroutine_type ]
!447 = metadata !{metadata !444, metadata !372, metadata !353}
!448 = metadata !{i32 786478, i32 0, metadata !355, metadata !"operator=", metadata !"operator=", metadata !"_ZN11ap_int_baseILi514ELb1ELb0EEaSEPKc", metadata !64, i32 2527, metadata !449, i1 false, i1 false, i32 0, i32 0, null, i32 256, i1 false, null, null, i32 0, metadata !76, i32 2527} ; [ DW_TAG_subprogram ]
!449 = metadata !{i32 786453, i32 0, metadata !"", i32 0, i32 0, i64 0, i64 0, i64 0, i32 0, null, metadata !450, i32 0, i32 0} ; [ DW_TAG_subroutine_type ]
!450 = metadata !{metadata !444, metadata !372, metadata !156}
!451 = metadata !{i32 786478, i32 0, metadata !355, metadata !"set", metadata !"set", metadata !"_ZN11ap_int_baseILi514ELb1ELb0EE3setEPKca", metadata !64, i32 2535, metadata !452, i1 false, i1 false, i32 0, i32 0, null, i32 256, i1 false, null, null, i32 0, metadata !76, i32 2535} ; [ DW_TAG_subprogram ]
!452 = metadata !{i32 786453, i32 0, metadata !"", i32 0, i32 0, i64 0, i64 0, i64 0, i32 0, null, metadata !453, i32 0, i32 0} ; [ DW_TAG_subroutine_type ]
!453 = metadata !{metadata !444, metadata !372, metadata !156, metadata !107}
!454 = metadata !{i32 786478, i32 0, metadata !355, metadata !"operator=", metadata !"operator=", metadata !"_ZN11ap_int_baseILi514ELb1ELb0EEaSEc", metadata !64, i32 2549, metadata !455, i1 false, i1 false, i32 0, i32 0, null, i32 256, i1 false, null, null, i32 0, metadata !76, i32 2549} ; [ DW_TAG_subprogram ]
!455 = metadata !{i32 786453, i32 0, metadata !"", i32 0, i32 0, i64 0, i64 0, i64 0, i32 0, null, metadata !456, i32 0, i32 0} ; [ DW_TAG_subroutine_type ]
!456 = metadata !{metadata !444, metadata !372, metadata !158}
!457 = metadata !{i32 786478, i32 0, metadata !355, metadata !"operator=", metadata !"operator=", metadata !"_ZN11ap_int_baseILi514ELb1ELb0EEaSEh", metadata !64, i32 2550, metadata !458, i1 false, i1 false, i32 0, i32 0, null, i32 256, i1 false, null, null, i32 0, metadata !76, i32 2550} ; [ DW_TAG_subprogram ]
!458 = metadata !{i32 786453, i32 0, metadata !"", i32 0, i32 0, i64 0, i64 0, i64 0, i32 0, null, metadata !459, i32 0, i32 0} ; [ DW_TAG_subroutine_type ]
!459 = metadata !{metadata !444, metadata !372, metadata !111}
!460 = metadata !{i32 786478, i32 0, metadata !355, metadata !"operator=", metadata !"operator=", metadata !"_ZN11ap_int_baseILi514ELb1ELb0EEaSEs", metadata !64, i32 2551, metadata !461, i1 false, i1 false, i32 0, i32 0, null, i32 256, i1 false, null, null, i32 0, metadata !76, i32 2551} ; [ DW_TAG_subprogram ]
!461 = metadata !{i32 786453, i32 0, metadata !"", i32 0, i32 0, i64 0, i64 0, i64 0, i32 0, null, metadata !462, i32 0, i32 0} ; [ DW_TAG_subroutine_type ]
!462 = metadata !{metadata !444, metadata !372, metadata !115}
!463 = metadata !{i32 786478, i32 0, metadata !355, metadata !"operator=", metadata !"operator=", metadata !"_ZN11ap_int_baseILi514ELb1ELb0EEaSEt", metadata !64, i32 2552, metadata !464, i1 false, i1 false, i32 0, i32 0, null, i32 256, i1 false, null, null, i32 0, metadata !76, i32 2552} ; [ DW_TAG_subprogram ]
!464 = metadata !{i32 786453, i32 0, metadata !"", i32 0, i32 0, i64 0, i64 0, i64 0, i32 0, null, metadata !465, i32 0, i32 0} ; [ DW_TAG_subroutine_type ]
!465 = metadata !{metadata !444, metadata !372, metadata !119}
!466 = metadata !{i32 786478, i32 0, metadata !355, metadata !"operator=", metadata !"operator=", metadata !"_ZN11ap_int_baseILi514ELb1ELb0EEaSEi", metadata !64, i32 2553, metadata !467, i1 false, i1 false, i32 0, i32 0, null, i32 256, i1 false, null, null, i32 0, metadata !76, i32 2553} ; [ DW_TAG_subprogram ]
!467 = metadata !{i32 786453, i32 0, metadata !"", i32 0, i32 0, i64 0, i64 0, i64 0, i32 0, null, metadata !468, i32 0, i32 0} ; [ DW_TAG_subroutine_type ]
!468 = metadata !{metadata !444, metadata !372, metadata !80}
!469 = metadata !{i32 786478, i32 0, metadata !355, metadata !"operator=", metadata !"operator=", metadata !"_ZN11ap_int_baseILi514ELb1ELb0EEaSEj", metadata !64, i32 2554, metadata !470, i1 false, i1 false, i32 0, i32 0, null, i32 256, i1 false, null, null, i32 0, metadata !76, i32 2554} ; [ DW_TAG_subprogram ]
!470 = metadata !{i32 786453, i32 0, metadata !"", i32 0, i32 0, i64 0, i64 0, i64 0, i32 0, null, metadata !471, i32 0, i32 0} ; [ DW_TAG_subroutine_type ]
!471 = metadata !{metadata !444, metadata !372, metadata !126}
!472 = metadata !{i32 786478, i32 0, metadata !355, metadata !"operator=", metadata !"operator=", metadata !"_ZN11ap_int_baseILi514ELb1ELb0EEaSEx", metadata !64, i32 2555, metadata !473, i1 false, i1 false, i32 0, i32 0, null, i32 256, i1 false, null, null, i32 0, metadata !76, i32 2555} ; [ DW_TAG_subprogram ]
!473 = metadata !{i32 786453, i32 0, metadata !"", i32 0, i32 0, i64 0, i64 0, i64 0, i32 0, null, metadata !474, i32 0, i32 0} ; [ DW_TAG_subroutine_type ]
!474 = metadata !{metadata !444, metadata !372, metadata !138}
!475 = metadata !{i32 786478, i32 0, metadata !355, metadata !"operator=", metadata !"operator=", metadata !"_ZN11ap_int_baseILi514ELb1ELb0EEaSEy", metadata !64, i32 2556, metadata !476, i1 false, i1 false, i32 0, i32 0, null, i32 256, i1 false, null, null, i32 0, metadata !76, i32 2556} ; [ DW_TAG_subprogram ]
!476 = metadata !{i32 786453, i32 0, metadata !"", i32 0, i32 0, i64 0, i64 0, i64 0, i32 0, null, metadata !477, i32 0, i32 0} ; [ DW_TAG_subroutine_type ]
!477 = metadata !{metadata !444, metadata !372, metadata !143}
!478 = metadata !{i32 786478, i32 0, metadata !355, metadata !"operator long long", metadata !"operator long long", metadata !"_ZNK11ap_int_baseILi514ELb1ELb0EEcvxEv", metadata !64, i32 2595, metadata !479, i1 false, i1 false, i32 0, i32 0, null, i32 256, i1 false, null, null, i32 0, metadata !76, i32 2595} ; [ DW_TAG_subprogram ]
!479 = metadata !{i32 786453, i32 0, metadata !"", i32 0, i32 0, i64 0, i64 0, i64 0, i32 0, null, metadata !480, i32 0, i32 0} ; [ DW_TAG_subroutine_type ]
!480 = metadata !{metadata !481, metadata !485}
!481 = metadata !{i32 786454, metadata !355, metadata !"RetType", metadata !64, i32 2345, i64 0, i64 0, i64 0, i32 0, metadata !482} ; [ DW_TAG_typedef ]
!482 = metadata !{i32 786454, metadata !483, metadata !"Type", metadata !64, i32 1359, i64 0, i64 0, i64 0, i32 0, metadata !138} ; [ DW_TAG_typedef ]
!483 = metadata !{i32 786434, null, metadata !"retval<8, true>", metadata !64, i32 1358, i64 8, i64 8, i32 0, i32 0, null, metadata !216, i32 0, null, metadata !484} ; [ DW_TAG_class_type ]
!484 = metadata !{metadata !218, metadata !368}
!485 = metadata !{i32 786447, i32 0, metadata !"", i32 0, i32 0, i64 64, i64 64, i64 0, i32 64, metadata !354} ; [ DW_TAG_pointer_type ]
!486 = metadata !{i32 786478, i32 0, metadata !355, metadata !"to_bool", metadata !"to_bool", metadata !"_ZNK11ap_int_baseILi514ELb1ELb0EE7to_boolEv", metadata !64, i32 2601, metadata !487, i1 false, i1 false, i32 0, i32 0, null, i32 256, i1 false, null, null, i32 0, metadata !76, i32 2601} ; [ DW_TAG_subprogram ]
!487 = metadata !{i32 786453, i32 0, metadata !"", i32 0, i32 0, i64 0, i64 0, i64 0, i32 0, null, metadata !488, i32 0, i32 0} ; [ DW_TAG_subroutine_type ]
!488 = metadata !{metadata !82, metadata !485}
!489 = metadata !{i32 786478, i32 0, metadata !355, metadata !"to_uchar", metadata !"to_uchar", metadata !"_ZNK11ap_int_baseILi514ELb1ELb0EE8to_ucharEv", metadata !64, i32 2602, metadata !487, i1 false, i1 false, i32 0, i32 0, null, i32 256, i1 false, null, null, i32 0, metadata !76, i32 2602} ; [ DW_TAG_subprogram ]
!490 = metadata !{i32 786478, i32 0, metadata !355, metadata !"to_char", metadata !"to_char", metadata !"_ZNK11ap_int_baseILi514ELb1ELb0EE7to_charEv", metadata !64, i32 2603, metadata !487, i1 false, i1 false, i32 0, i32 0, null, i32 256, i1 false, null, null, i32 0, metadata !76, i32 2603} ; [ DW_TAG_subprogram ]
!491 = metadata !{i32 786478, i32 0, metadata !355, metadata !"to_ushort", metadata !"to_ushort", metadata !"_ZNK11ap_int_baseILi514ELb1ELb0EE9to_ushortEv", metadata !64, i32 2604, metadata !487, i1 false, i1 false, i32 0, i32 0, null, i32 256, i1 false, null, null, i32 0, metadata !76, i32 2604} ; [ DW_TAG_subprogram ]
!492 = metadata !{i32 786478, i32 0, metadata !355, metadata !"to_short", metadata !"to_short", metadata !"_ZNK11ap_int_baseILi514ELb1ELb0EE8to_shortEv", metadata !64, i32 2605, metadata !487, i1 false, i1 false, i32 0, i32 0, null, i32 256, i1 false, null, null, i32 0, metadata !76, i32 2605} ; [ DW_TAG_subprogram ]
!493 = metadata !{i32 786478, i32 0, metadata !355, metadata !"to_int", metadata !"to_int", metadata !"_ZNK11ap_int_baseILi514ELb1ELb0EE6to_intEv", metadata !64, i32 2606, metadata !494, i1 false, i1 false, i32 0, i32 0, null, i32 256, i1 false, null, null, i32 0, metadata !76, i32 2606} ; [ DW_TAG_subprogram ]
!494 = metadata !{i32 786453, i32 0, metadata !"", i32 0, i32 0, i64 0, i64 0, i64 0, i32 0, null, metadata !495, i32 0, i32 0} ; [ DW_TAG_subroutine_type ]
!495 = metadata !{metadata !80, metadata !485}
!496 = metadata !{i32 786478, i32 0, metadata !355, metadata !"to_uint", metadata !"to_uint", metadata !"_ZNK11ap_int_baseILi514ELb1ELb0EE7to_uintEv", metadata !64, i32 2607, metadata !497, i1 false, i1 false, i32 0, i32 0, null, i32 256, i1 false, null, null, i32 0, metadata !76, i32 2607} ; [ DW_TAG_subprogram ]
!497 = metadata !{i32 786453, i32 0, metadata !"", i32 0, i32 0, i64 0, i64 0, i64 0, i32 0, null, metadata !498, i32 0, i32 0} ; [ DW_TAG_subroutine_type ]
!498 = metadata !{metadata !126, metadata !485}
!499 = metadata !{i32 786478, i32 0, metadata !355, metadata !"to_long", metadata !"to_long", metadata !"_ZNK11ap_int_baseILi514ELb1ELb0EE7to_longEv", metadata !64, i32 2608, metadata !500, i1 false, i1 false, i32 0, i32 0, null, i32 256, i1 false, null, null, i32 0, metadata !76, i32 2608} ; [ DW_TAG_subprogram ]
!500 = metadata !{i32 786453, i32 0, metadata !"", i32 0, i32 0, i64 0, i64 0, i64 0, i32 0, null, metadata !501, i32 0, i32 0} ; [ DW_TAG_subroutine_type ]
!501 = metadata !{metadata !130, metadata !485}
!502 = metadata !{i32 786478, i32 0, metadata !355, metadata !"to_ulong", metadata !"to_ulong", metadata !"_ZNK11ap_int_baseILi514ELb1ELb0EE8to_ulongEv", metadata !64, i32 2609, metadata !503, i1 false, i1 false, i32 0, i32 0, null, i32 256, i1 false, null, null, i32 0, metadata !76, i32 2609} ; [ DW_TAG_subprogram ]
!503 = metadata !{i32 786453, i32 0, metadata !"", i32 0, i32 0, i64 0, i64 0, i64 0, i32 0, null, metadata !504, i32 0, i32 0} ; [ DW_TAG_subroutine_type ]
!504 = metadata !{metadata !134, metadata !485}
!505 = metadata !{i32 786478, i32 0, metadata !355, metadata !"to_int64", metadata !"to_int64", metadata !"_ZNK11ap_int_baseILi514ELb1ELb0EE8to_int64Ev", metadata !64, i32 2610, metadata !506, i1 false, i1 false, i32 0, i32 0, null, i32 256, i1 false, null, null, i32 0, metadata !76, i32 2610} ; [ DW_TAG_subprogram ]
!506 = metadata !{i32 786453, i32 0, metadata !"", i32 0, i32 0, i64 0, i64 0, i64 0, i32 0, null, metadata !507, i32 0, i32 0} ; [ DW_TAG_subroutine_type ]
!507 = metadata !{metadata !138, metadata !485}
!508 = metadata !{i32 786478, i32 0, metadata !355, metadata !"to_uint64", metadata !"to_uint64", metadata !"_ZNK11ap_int_baseILi514ELb1ELb0EE9to_uint64Ev", metadata !64, i32 2611, metadata !509, i1 false, i1 false, i32 0, i32 0, null, i32 256, i1 false, null, null, i32 0, metadata !76, i32 2611} ; [ DW_TAG_subprogram ]
!509 = metadata !{i32 786453, i32 0, metadata !"", i32 0, i32 0, i64 0, i64 0, i64 0, i32 0, null, metadata !510, i32 0, i32 0} ; [ DW_TAG_subroutine_type ]
!510 = metadata !{metadata !143, metadata !485}
!511 = metadata !{i32 786478, i32 0, metadata !355, metadata !"to_double", metadata !"to_double", metadata !"_ZNK11ap_int_baseILi514ELb1ELb0EE9to_doubleEv", metadata !64, i32 2612, metadata !512, i1 false, i1 false, i32 0, i32 0, null, i32 256, i1 false, null, null, i32 0, metadata !76, i32 2612} ; [ DW_TAG_subprogram ]
!512 = metadata !{i32 786453, i32 0, metadata !"", i32 0, i32 0, i64 0, i64 0, i64 0, i32 0, null, metadata !513, i32 0, i32 0} ; [ DW_TAG_subroutine_type ]
!513 = metadata !{metadata !152, metadata !485}
!514 = metadata !{i32 786478, i32 0, metadata !355, metadata !"length", metadata !"length", metadata !"_ZNK11ap_int_baseILi514ELb1ELb0EE6lengthEv", metadata !64, i32 2625, metadata !494, i1 false, i1 false, i32 0, i32 0, null, i32 256, i1 false, null, null, i32 0, metadata !76, i32 2625} ; [ DW_TAG_subprogram ]
!515 = metadata !{i32 786478, i32 0, metadata !355, metadata !"length", metadata !"length", metadata !"_ZNVK11ap_int_baseILi514ELb1ELb0EE6lengthEv", metadata !64, i32 2626, metadata !516, i1 false, i1 false, i32 0, i32 0, null, i32 256, i1 false, null, null, i32 0, metadata !76, i32 2626} ; [ DW_TAG_subprogram ]
!516 = metadata !{i32 786453, i32 0, metadata !"", i32 0, i32 0, i64 0, i64 0, i64 0, i32 0, null, metadata !517, i32 0, i32 0} ; [ DW_TAG_subroutine_type ]
!517 = metadata !{metadata !80, metadata !518}
!518 = metadata !{i32 786447, i32 0, metadata !"", i32 0, i32 0, i64 64, i64 64, i64 0, i32 64, metadata !383} ; [ DW_TAG_pointer_type ]
!519 = metadata !{i32 786478, i32 0, metadata !355, metadata !"reverse", metadata !"reverse", metadata !"_ZN11ap_int_baseILi514ELb1ELb0EE7reverseEv", metadata !64, i32 2631, metadata !520, i1 false, i1 false, i32 0, i32 0, null, i32 256, i1 false, null, null, i32 0, metadata !76, i32 2631} ; [ DW_TAG_subprogram ]
!520 = metadata !{i32 786453, i32 0, metadata !"", i32 0, i32 0, i64 0, i64 0, i64 0, i32 0, null, metadata !521, i32 0, i32 0} ; [ DW_TAG_subroutine_type ]
!521 = metadata !{metadata !444, metadata !372}
!522 = metadata !{i32 786478, i32 0, metadata !355, metadata !"iszero", metadata !"iszero", metadata !"_ZNK11ap_int_baseILi514ELb1ELb0EE6iszeroEv", metadata !64, i32 2637, metadata !487, i1 false, i1 false, i32 0, i32 0, null, i32 256, i1 false, null, null, i32 0, metadata !76, i32 2637} ; [ DW_TAG_subprogram ]
!523 = metadata !{i32 786478, i32 0, metadata !355, metadata !"is_zero", metadata !"is_zero", metadata !"_ZNK11ap_int_baseILi514ELb1ELb0EE7is_zeroEv", metadata !64, i32 2642, metadata !487, i1 false, i1 false, i32 0, i32 0, null, i32 256, i1 false, null, null, i32 0, metadata !76, i32 2642} ; [ DW_TAG_subprogram ]
!524 = metadata !{i32 786478, i32 0, metadata !355, metadata !"sign", metadata !"sign", metadata !"_ZNK11ap_int_baseILi514ELb1ELb0EE4signEv", metadata !64, i32 2647, metadata !487, i1 false, i1 false, i32 0, i32 0, null, i32 256, i1 false, null, null, i32 0, metadata !76, i32 2647} ; [ DW_TAG_subprogram ]
!525 = metadata !{i32 786478, i32 0, metadata !355, metadata !"clear", metadata !"clear", metadata !"_ZN11ap_int_baseILi514ELb1ELb0EE5clearEi", metadata !64, i32 2655, metadata !401, i1 false, i1 false, i32 0, i32 0, null, i32 256, i1 false, null, null, i32 0, metadata !76, i32 2655} ; [ DW_TAG_subprogram ]
!526 = metadata !{i32 786478, i32 0, metadata !355, metadata !"invert", metadata !"invert", metadata !"_ZN11ap_int_baseILi514ELb1ELb0EE6invertEi", metadata !64, i32 2661, metadata !401, i1 false, i1 false, i32 0, i32 0, null, i32 256, i1 false, null, null, i32 0, metadata !76, i32 2661} ; [ DW_TAG_subprogram ]
!527 = metadata !{i32 786478, i32 0, metadata !355, metadata !"test", metadata !"test", metadata !"_ZNK11ap_int_baseILi514ELb1ELb0EE4testEi", metadata !64, i32 2669, metadata !528, i1 false, i1 false, i32 0, i32 0, null, i32 256, i1 false, null, null, i32 0, metadata !76, i32 2669} ; [ DW_TAG_subprogram ]
!528 = metadata !{i32 786453, i32 0, metadata !"", i32 0, i32 0, i64 0, i64 0, i64 0, i32 0, null, metadata !529, i32 0, i32 0} ; [ DW_TAG_subroutine_type ]
!529 = metadata !{metadata !82, metadata !485, metadata !80}
!530 = metadata !{i32 786478, i32 0, metadata !355, metadata !"set", metadata !"set", metadata !"_ZN11ap_int_baseILi514ELb1ELb0EE3setEi", metadata !64, i32 2675, metadata !401, i1 false, i1 false, i32 0, i32 0, null, i32 256, i1 false, null, null, i32 0, metadata !76, i32 2675} ; [ DW_TAG_subprogram ]
!531 = metadata !{i32 786478, i32 0, metadata !355, metadata !"set", metadata !"set", metadata !"_ZN11ap_int_baseILi514ELb1ELb0EE3setEib", metadata !64, i32 2681, metadata !532, i1 false, i1 false, i32 0, i32 0, null, i32 256, i1 false, null, null, i32 0, metadata !76, i32 2681} ; [ DW_TAG_subprogram ]
!532 = metadata !{i32 786453, i32 0, metadata !"", i32 0, i32 0, i64 0, i64 0, i64 0, i32 0, null, metadata !533, i32 0, i32 0} ; [ DW_TAG_subroutine_type ]
!533 = metadata !{null, metadata !372, metadata !80, metadata !82}
!534 = metadata !{i32 786478, i32 0, metadata !355, metadata !"lrotate", metadata !"lrotate", metadata !"_ZN11ap_int_baseILi514ELb1ELb0EE7lrotateEi", metadata !64, i32 2688, metadata !401, i1 false, i1 false, i32 0, i32 0, null, i32 256, i1 false, null, null, i32 0, metadata !76, i32 2688} ; [ DW_TAG_subprogram ]
!535 = metadata !{i32 786478, i32 0, metadata !355, metadata !"rrotate", metadata !"rrotate", metadata !"_ZN11ap_int_baseILi514ELb1ELb0EE7rrotateEi", metadata !64, i32 2697, metadata !401, i1 false, i1 false, i32 0, i32 0, null, i32 256, i1 false, null, null, i32 0, metadata !76, i32 2697} ; [ DW_TAG_subprogram ]
!536 = metadata !{i32 786478, i32 0, metadata !355, metadata !"set_bit", metadata !"set_bit", metadata !"_ZN11ap_int_baseILi514ELb1ELb0EE7set_bitEib", metadata !64, i32 2705, metadata !532, i1 false, i1 false, i32 0, i32 0, null, i32 256, i1 false, null, null, i32 0, metadata !76, i32 2705} ; [ DW_TAG_subprogram ]
!537 = metadata !{i32 786478, i32 0, metadata !355, metadata !"get_bit", metadata !"get_bit", metadata !"_ZNK11ap_int_baseILi514ELb1ELb0EE7get_bitEi", metadata !64, i32 2710, metadata !528, i1 false, i1 false, i32 0, i32 0, null, i32 256, i1 false, null, null, i32 0, metadata !76, i32 2710} ; [ DW_TAG_subprogram ]
!538 = metadata !{i32 786478, i32 0, metadata !355, metadata !"b_not", metadata !"b_not", metadata !"_ZN11ap_int_baseILi514ELb1ELb0EE5b_notEv", metadata !64, i32 2715, metadata !370, i1 false, i1 false, i32 0, i32 0, null, i32 256, i1 false, null, null, i32 0, metadata !76, i32 2715} ; [ DW_TAG_subprogram ]
!539 = metadata !{i32 786478, i32 0, metadata !355, metadata !"countLeadingZeros", metadata !"countLeadingZeros", metadata !"_ZN11ap_int_baseILi514ELb1ELb0EE17countLeadingZerosEv", metadata !64, i32 2722, metadata !540, i1 false, i1 false, i32 0, i32 0, null, i32 256, i1 false, null, null, i32 0, metadata !76, i32 2722} ; [ DW_TAG_subprogram ]
!540 = metadata !{i32 786453, i32 0, metadata !"", i32 0, i32 0, i64 0, i64 0, i64 0, i32 0, null, metadata !541, i32 0, i32 0} ; [ DW_TAG_subroutine_type ]
!541 = metadata !{metadata !80, metadata !372}
!542 = metadata !{i32 786478, i32 0, metadata !355, metadata !"operator++", metadata !"operator++", metadata !"_ZN11ap_int_baseILi514ELb1ELb0EEppEv", metadata !64, i32 2779, metadata !520, i1 false, i1 false, i32 0, i32 0, null, i32 256, i1 false, null, null, i32 0, metadata !76, i32 2779} ; [ DW_TAG_subprogram ]
!543 = metadata !{i32 786478, i32 0, metadata !355, metadata !"operator--", metadata !"operator--", metadata !"_ZN11ap_int_baseILi514ELb1ELb0EEmmEv", metadata !64, i32 2783, metadata !520, i1 false, i1 false, i32 0, i32 0, null, i32 256, i1 false, null, null, i32 0, metadata !76, i32 2783} ; [ DW_TAG_subprogram ]
!544 = metadata !{i32 786478, i32 0, metadata !355, metadata !"operator++", metadata !"operator++", metadata !"_ZN11ap_int_baseILi514ELb1ELb0EEppEi", metadata !64, i32 2791, metadata !545, i1 false, i1 false, i32 0, i32 0, null, i32 256, i1 false, null, null, i32 0, metadata !76, i32 2791} ; [ DW_TAG_subprogram ]
!545 = metadata !{i32 786453, i32 0, metadata !"", i32 0, i32 0, i64 0, i64 0, i64 0, i32 0, null, metadata !546, i32 0, i32 0} ; [ DW_TAG_subroutine_type ]
!546 = metadata !{metadata !354, metadata !372, metadata !80}
!547 = metadata !{i32 786478, i32 0, metadata !355, metadata !"operator--", metadata !"operator--", metadata !"_ZN11ap_int_baseILi514ELb1ELb0EEmmEi", metadata !64, i32 2796, metadata !545, i1 false, i1 false, i32 0, i32 0, null, i32 256, i1 false, null, null, i32 0, metadata !76, i32 2796} ; [ DW_TAG_subprogram ]
!548 = metadata !{i32 786478, i32 0, metadata !355, metadata !"operator+", metadata !"operator+", metadata !"_ZNK11ap_int_baseILi514ELb1ELb0EEpsEv", metadata !64, i32 2805, metadata !549, i1 false, i1 false, i32 0, i32 0, null, i32 256, i1 false, null, null, i32 0, metadata !76, i32 2805} ; [ DW_TAG_subprogram ]
!549 = metadata !{i32 786453, i32 0, metadata !"", i32 0, i32 0, i64 0, i64 0, i64 0, i32 0, null, metadata !550, i32 0, i32 0} ; [ DW_TAG_subroutine_type ]
!550 = metadata !{metadata !355, metadata !485}
!551 = metadata !{i32 786478, i32 0, metadata !355, metadata !"operator-", metadata !"operator-", metadata !"_ZNK11ap_int_baseILi514ELb1ELb0EEngEv", metadata !64, i32 2809, metadata !552, i1 false, i1 false, i32 0, i32 0, null, i32 256, i1 false, null, null, i32 0, metadata !76, i32 2809} ; [ DW_TAG_subprogram ]
!552 = metadata !{i32 786453, i32 0, metadata !"", i32 0, i32 0, i64 0, i64 0, i64 0, i32 0, null, metadata !553, i32 0, i32 0} ; [ DW_TAG_subroutine_type ]
!553 = metadata !{metadata !554, metadata !485}
!554 = metadata !{i32 786454, metadata !555, metadata !"minus", metadata !64, i32 2368, i64 0, i64 0, i64 0, i32 0, metadata !556} ; [ DW_TAG_typedef ]
!555 = metadata !{i32 786434, metadata !355, metadata !"RType<1, false>", metadata !64, i32 2350, i64 8, i64 8, i32 0, i32 0, null, metadata !216, i32 0, null, metadata !290} ; [ DW_TAG_class_type ]
!556 = metadata !{i32 786434, null, metadata !"ap_int_base<515, true, false>", metadata !64, i32 650, i32 0, i32 0, i32 0, i32 4, null, null, i32 0} ; [ DW_TAG_class_type ]
!557 = metadata !{i32 786478, i32 0, metadata !355, metadata !"operator!", metadata !"operator!", metadata !"_ZNK11ap_int_baseILi514ELb1ELb0EEntEv", metadata !64, i32 2816, metadata !487, i1 false, i1 false, i32 0, i32 0, null, i32 256, i1 false, null, null, i32 0, metadata !76, i32 2816} ; [ DW_TAG_subprogram ]
!558 = metadata !{i32 786478, i32 0, metadata !355, metadata !"operator~", metadata !"operator~", metadata !"_ZNK11ap_int_baseILi514ELb1ELb0EEcoEv", metadata !64, i32 2823, metadata !549, i1 false, i1 false, i32 0, i32 0, null, i32 256, i1 false, null, null, i32 0, metadata !76, i32 2823} ; [ DW_TAG_subprogram ]
!559 = metadata !{i32 786478, i32 0, metadata !355, metadata !"range", metadata !"range", metadata !"_ZN11ap_int_baseILi514ELb1ELb0EE5rangeEii", metadata !64, i32 2950, metadata !560, i1 false, i1 false, i32 0, i32 0, null, i32 256, i1 false, null, null, i32 0, metadata !76, i32 2950} ; [ DW_TAG_subprogram ]
!560 = metadata !{i32 786453, i32 0, metadata !"", i32 0, i32 0, i64 0, i64 0, i64 0, i32 0, null, metadata !561, i32 0, i32 0} ; [ DW_TAG_subroutine_type ]
!561 = metadata !{metadata !562, metadata !372, metadata !80, metadata !80}
!562 = metadata !{i32 786434, null, metadata !"ap_range_ref<514, true>", metadata !64, i32 923, i32 0, i32 0, i32 0, i32 4, null, null, i32 0} ; [ DW_TAG_class_type ]
!563 = metadata !{i32 786478, i32 0, metadata !355, metadata !"operator()", metadata !"operator()", metadata !"_ZN11ap_int_baseILi514ELb1ELb0EEclEii", metadata !64, i32 2956, metadata !560, i1 false, i1 false, i32 0, i32 0, null, i32 256, i1 false, null, null, i32 0, metadata !76, i32 2956} ; [ DW_TAG_subprogram ]
!564 = metadata !{i32 786478, i32 0, metadata !355, metadata !"range", metadata !"range", metadata !"_ZNK11ap_int_baseILi514ELb1ELb0EE5rangeEii", metadata !64, i32 2962, metadata !565, i1 false, i1 false, i32 0, i32 0, null, i32 256, i1 false, null, null, i32 0, metadata !76, i32 2962} ; [ DW_TAG_subprogram ]
!565 = metadata !{i32 786453, i32 0, metadata !"", i32 0, i32 0, i64 0, i64 0, i64 0, i32 0, null, metadata !566, i32 0, i32 0} ; [ DW_TAG_subroutine_type ]
!566 = metadata !{metadata !562, metadata !485, metadata !80, metadata !80}
!567 = metadata !{i32 786478, i32 0, metadata !355, metadata !"operator()", metadata !"operator()", metadata !"_ZNK11ap_int_baseILi514ELb1ELb0EEclEii", metadata !64, i32 2968, metadata !565, i1 false, i1 false, i32 0, i32 0, null, i32 256, i1 false, null, null, i32 0, metadata !76, i32 2968} ; [ DW_TAG_subprogram ]
!568 = metadata !{i32 786478, i32 0, metadata !355, metadata !"operator[]", metadata !"operator[]", metadata !"_ZN11ap_int_baseILi514ELb1ELb0EEixEi", metadata !64, i32 2988, metadata !569, i1 false, i1 false, i32 0, i32 0, null, i32 256, i1 false, null, null, i32 0, metadata !76, i32 2988} ; [ DW_TAG_subprogram ]
!569 = metadata !{i32 786453, i32 0, metadata !"", i32 0, i32 0, i64 0, i64 0, i64 0, i32 0, null, metadata !570, i32 0, i32 0} ; [ DW_TAG_subroutine_type ]
!570 = metadata !{metadata !571, metadata !372, metadata !80}
!571 = metadata !{i32 786434, null, metadata !"ap_bit_ref<514, true>", metadata !64, i32 1193, i32 0, i32 0, i32 0, i32 4, null, null, i32 0} ; [ DW_TAG_class_type ]
!572 = metadata !{i32 786478, i32 0, metadata !355, metadata !"operator[]", metadata !"operator[]", metadata !"_ZNK11ap_int_baseILi514ELb1ELb0EEixEi", metadata !64, i32 3002, metadata !528, i1 false, i1 false, i32 0, i32 0, null, i32 256, i1 false, null, null, i32 0, metadata !76, i32 3002} ; [ DW_TAG_subprogram ]
!573 = metadata !{i32 786478, i32 0, metadata !355, metadata !"bit", metadata !"bit", metadata !"_ZN11ap_int_baseILi514ELb1ELb0EE3bitEi", metadata !64, i32 3016, metadata !569, i1 false, i1 false, i32 0, i32 0, null, i32 256, i1 false, null, null, i32 0, metadata !76, i32 3016} ; [ DW_TAG_subprogram ]
!574 = metadata !{i32 786478, i32 0, metadata !355, metadata !"bit", metadata !"bit", metadata !"_ZNK11ap_int_baseILi514ELb1ELb0EE3bitEi", metadata !64, i32 3030, metadata !528, i1 false, i1 false, i32 0, i32 0, null, i32 256, i1 false, null, null, i32 0, metadata !76, i32 3030} ; [ DW_TAG_subprogram ]
!575 = metadata !{i32 786478, i32 0, metadata !355, metadata !"and_reduce", metadata !"and_reduce", metadata !"_ZN11ap_int_baseILi514ELb1ELb0EE10and_reduceEv", metadata !64, i32 3210, metadata !576, i1 false, i1 false, i32 0, i32 0, null, i32 256, i1 false, null, null, i32 0, metadata !76, i32 3210} ; [ DW_TAG_subprogram ]
!576 = metadata !{i32 786453, i32 0, metadata !"", i32 0, i32 0, i64 0, i64 0, i64 0, i32 0, null, metadata !577, i32 0, i32 0} ; [ DW_TAG_subroutine_type ]
!577 = metadata !{metadata !82, metadata !372}
!578 = metadata !{i32 786478, i32 0, metadata !355, metadata !"nand_reduce", metadata !"nand_reduce", metadata !"_ZN11ap_int_baseILi514ELb1ELb0EE11nand_reduceEv", metadata !64, i32 3213, metadata !576, i1 false, i1 false, i32 0, i32 0, null, i32 256, i1 false, null, null, i32 0, metadata !76, i32 3213} ; [ DW_TAG_subprogram ]
!579 = metadata !{i32 786478, i32 0, metadata !355, metadata !"or_reduce", metadata !"or_reduce", metadata !"_ZN11ap_int_baseILi514ELb1ELb0EE9or_reduceEv", metadata !64, i32 3216, metadata !576, i1 false, i1 false, i32 0, i32 0, null, i32 256, i1 false, null, null, i32 0, metadata !76, i32 3216} ; [ DW_TAG_subprogram ]
!580 = metadata !{i32 786478, i32 0, metadata !355, metadata !"nor_reduce", metadata !"nor_reduce", metadata !"_ZN11ap_int_baseILi514ELb1ELb0EE10nor_reduceEv", metadata !64, i32 3219, metadata !576, i1 false, i1 false, i32 0, i32 0, null, i32 256, i1 false, null, null, i32 0, metadata !76, i32 3219} ; [ DW_TAG_subprogram ]
!581 = metadata !{i32 786478, i32 0, metadata !355, metadata !"xor_reduce", metadata !"xor_reduce", metadata !"_ZN11ap_int_baseILi514ELb1ELb0EE10xor_reduceEv", metadata !64, i32 3222, metadata !576, i1 false, i1 false, i32 0, i32 0, null, i32 256, i1 false, null, null, i32 0, metadata !76, i32 3222} ; [ DW_TAG_subprogram ]
!582 = metadata !{i32 786478, i32 0, metadata !355, metadata !"xnor_reduce", metadata !"xnor_reduce", metadata !"_ZN11ap_int_baseILi514ELb1ELb0EE11xnor_reduceEv", metadata !64, i32 3225, metadata !576, i1 false, i1 false, i32 0, i32 0, null, i32 256, i1 false, null, null, i32 0, metadata !76, i32 3225} ; [ DW_TAG_subprogram ]
!583 = metadata !{i32 786478, i32 0, metadata !355, metadata !"and_reduce", metadata !"and_reduce", metadata !"_ZNK11ap_int_baseILi514ELb1ELb0EE10and_reduceEv", metadata !64, i32 3229, metadata !487, i1 false, i1 false, i32 0, i32 0, null, i32 256, i1 false, null, null, i32 0, metadata !76, i32 3229} ; [ DW_TAG_subprogram ]
!584 = metadata !{i32 786478, i32 0, metadata !355, metadata !"nand_reduce", metadata !"nand_reduce", metadata !"_ZNK11ap_int_baseILi514ELb1ELb0EE11nand_reduceEv", metadata !64, i32 3232, metadata !487, i1 false, i1 false, i32 0, i32 0, null, i32 256, i1 false, null, null, i32 0, metadata !76, i32 3232} ; [ DW_TAG_subprogram ]
!585 = metadata !{i32 786478, i32 0, metadata !355, metadata !"or_reduce", metadata !"or_reduce", metadata !"_ZNK11ap_int_baseILi514ELb1ELb0EE9or_reduceEv", metadata !64, i32 3235, metadata !487, i1 false, i1 false, i32 0, i32 0, null, i32 256, i1 false, null, null, i32 0, metadata !76, i32 3235} ; [ DW_TAG_subprogram ]
!586 = metadata !{i32 786478, i32 0, metadata !355, metadata !"nor_reduce", metadata !"nor_reduce", metadata !"_ZNK11ap_int_baseILi514ELb1ELb0EE10nor_reduceEv", metadata !64, i32 3238, metadata !487, i1 false, i1 false, i32 0, i32 0, null, i32 256, i1 false, null, null, i32 0, metadata !76, i32 3238} ; [ DW_TAG_subprogram ]
!587 = metadata !{i32 786478, i32 0, metadata !355, metadata !"xor_reduce", metadata !"xor_reduce", metadata !"_ZNK11ap_int_baseILi514ELb1ELb0EE10xor_reduceEv", metadata !64, i32 3241, metadata !487, i1 false, i1 false, i32 0, i32 0, null, i32 256, i1 false, null, null, i32 0, metadata !76, i32 3241} ; [ DW_TAG_subprogram ]
!588 = metadata !{i32 786478, i32 0, metadata !355, metadata !"xnor_reduce", metadata !"xnor_reduce", metadata !"_ZNK11ap_int_baseILi514ELb1ELb0EE11xnor_reduceEv", metadata !64, i32 3244, metadata !487, i1 false, i1 false, i32 0, i32 0, null, i32 256, i1 false, null, null, i32 0, metadata !76, i32 3244} ; [ DW_TAG_subprogram ]
!589 = metadata !{i32 786478, i32 0, metadata !355, metadata !"to_string", metadata !"to_string", metadata !"_ZNK11ap_int_baseILi514ELb1ELb0EE9to_stringEPci8BaseModeb", metadata !64, i32 3251, metadata !590, i1 false, i1 false, i32 0, i32 0, null, i32 256, i1 false, null, null, i32 0, metadata !76, i32 3251} ; [ DW_TAG_subprogram ]
!590 = metadata !{i32 786453, i32 0, metadata !"", i32 0, i32 0, i64 0, i64 0, i64 0, i32 0, null, metadata !591, i32 0, i32 0} ; [ DW_TAG_subroutine_type ]
!591 = metadata !{null, metadata !485, metadata !330, metadata !80, metadata !331, metadata !82}
!592 = metadata !{i32 786478, i32 0, metadata !355, metadata !"to_string", metadata !"to_string", metadata !"_ZNK11ap_int_baseILi514ELb1ELb0EE9to_stringE8BaseModeb", metadata !64, i32 3278, metadata !593, i1 false, i1 false, i32 0, i32 0, null, i32 256, i1 false, null, null, i32 0, metadata !76, i32 3278} ; [ DW_TAG_subprogram ]
!593 = metadata !{i32 786453, i32 0, metadata !"", i32 0, i32 0, i64 0, i64 0, i64 0, i32 0, null, metadata !594, i32 0, i32 0} ; [ DW_TAG_subroutine_type ]
!594 = metadata !{metadata !330, metadata !485, metadata !331, metadata !82}
!595 = metadata !{i32 786478, i32 0, metadata !355, metadata !"to_string", metadata !"to_string", metadata !"_ZNK11ap_int_baseILi514ELb1ELb0EE9to_stringEab", metadata !64, i32 3282, metadata !596, i1 false, i1 false, i32 0, i32 0, null, i32 256, i1 false, null, null, i32 0, metadata !76, i32 3282} ; [ DW_TAG_subprogram ]
!596 = metadata !{i32 786453, i32 0, metadata !"", i32 0, i32 0, i64 0, i64 0, i64 0, i32 0, null, metadata !597, i32 0, i32 0} ; [ DW_TAG_subroutine_type ]
!597 = metadata !{metadata !330, metadata !485, metadata !107, metadata !82}
!598 = metadata !{i32 786478, i32 0, metadata !355, metadata !"~ap_int_base", metadata !"~ap_int_base", metadata !"", metadata !64, i32 2341, metadata !370, i1 false, i1 false, i32 0, i32 0, null, i32 320, i1 false, null, null, i32 0, metadata !76, i32 2341} ; [ DW_TAG_subprogram ]
!599 = metadata !{metadata !600, metadata !368, metadata !345}
!600 = metadata !{i32 786480, null, metadata !"_AP_W", metadata !80, i64 514, null, i32 0, i32 0} ; [ DW_TAG_template_value_parameter ]
!601 = metadata !{i32 786478, i32 0, metadata !59, metadata !"ap_uint", metadata !"ap_uint", metadata !"", metadata !60, i32 245, metadata !602, i1 false, i1 false, i32 0, i32 0, null, i32 256, i1 false, null, null, i32 0, metadata !76, i32 245} ; [ DW_TAG_subprogram ]
!602 = metadata !{i32 786453, i32 0, metadata !"", i32 0, i32 0, i64 0, i64 0, i64 0, i32 0, null, metadata !603, i32 0, i32 0} ; [ DW_TAG_subroutine_type ]
!603 = metadata !{null, metadata !349, metadata !82}
!604 = metadata !{i32 786478, i32 0, metadata !59, metadata !"ap_uint", metadata !"ap_uint", metadata !"", metadata !60, i32 246, metadata !605, i1 false, i1 false, i32 0, i32 0, null, i32 256, i1 false, null, null, i32 0, metadata !76, i32 246} ; [ DW_TAG_subprogram ]
!605 = metadata !{i32 786453, i32 0, metadata !"", i32 0, i32 0, i64 0, i64 0, i64 0, i32 0, null, metadata !606, i32 0, i32 0} ; [ DW_TAG_subroutine_type ]
!606 = metadata !{null, metadata !349, metadata !107}
!607 = metadata !{i32 786478, i32 0, metadata !59, metadata !"ap_uint", metadata !"ap_uint", metadata !"", metadata !60, i32 247, metadata !608, i1 false, i1 false, i32 0, i32 0, null, i32 256, i1 false, null, null, i32 0, metadata !76, i32 247} ; [ DW_TAG_subprogram ]
!608 = metadata !{i32 786453, i32 0, metadata !"", i32 0, i32 0, i64 0, i64 0, i64 0, i32 0, null, metadata !609, i32 0, i32 0} ; [ DW_TAG_subroutine_type ]
!609 = metadata !{null, metadata !349, metadata !111}
!610 = metadata !{i32 786478, i32 0, metadata !59, metadata !"ap_uint", metadata !"ap_uint", metadata !"", metadata !60, i32 248, metadata !611, i1 false, i1 false, i32 0, i32 0, null, i32 256, i1 false, null, null, i32 0, metadata !76, i32 248} ; [ DW_TAG_subprogram ]
!611 = metadata !{i32 786453, i32 0, metadata !"", i32 0, i32 0, i64 0, i64 0, i64 0, i32 0, null, metadata !612, i32 0, i32 0} ; [ DW_TAG_subroutine_type ]
!612 = metadata !{null, metadata !349, metadata !115}
!613 = metadata !{i32 786478, i32 0, metadata !59, metadata !"ap_uint", metadata !"ap_uint", metadata !"", metadata !60, i32 249, metadata !614, i1 false, i1 false, i32 0, i32 0, null, i32 256, i1 false, null, null, i32 0, metadata !76, i32 249} ; [ DW_TAG_subprogram ]
!614 = metadata !{i32 786453, i32 0, metadata !"", i32 0, i32 0, i64 0, i64 0, i64 0, i32 0, null, metadata !615, i32 0, i32 0} ; [ DW_TAG_subroutine_type ]
!615 = metadata !{null, metadata !349, metadata !119}
!616 = metadata !{i32 786478, i32 0, metadata !59, metadata !"ap_uint", metadata !"ap_uint", metadata !"", metadata !60, i32 250, metadata !617, i1 false, i1 false, i32 0, i32 0, null, i32 256, i1 false, null, null, i32 0, metadata !76, i32 250} ; [ DW_TAG_subprogram ]
!617 = metadata !{i32 786453, i32 0, metadata !"", i32 0, i32 0, i64 0, i64 0, i64 0, i32 0, null, metadata !618, i32 0, i32 0} ; [ DW_TAG_subroutine_type ]
!618 = metadata !{null, metadata !349, metadata !80}
!619 = metadata !{i32 786478, i32 0, metadata !59, metadata !"ap_uint", metadata !"ap_uint", metadata !"", metadata !60, i32 251, metadata !620, i1 false, i1 false, i32 0, i32 0, null, i32 256, i1 false, null, null, i32 0, metadata !76, i32 251} ; [ DW_TAG_subprogram ]
!620 = metadata !{i32 786453, i32 0, metadata !"", i32 0, i32 0, i64 0, i64 0, i64 0, i32 0, null, metadata !621, i32 0, i32 0} ; [ DW_TAG_subroutine_type ]
!621 = metadata !{null, metadata !349, metadata !126}
!622 = metadata !{i32 786478, i32 0, metadata !59, metadata !"ap_uint", metadata !"ap_uint", metadata !"", metadata !60, i32 252, metadata !623, i1 false, i1 false, i32 0, i32 0, null, i32 256, i1 false, null, null, i32 0, metadata !76, i32 252} ; [ DW_TAG_subprogram ]
!623 = metadata !{i32 786453, i32 0, metadata !"", i32 0, i32 0, i64 0, i64 0, i64 0, i32 0, null, metadata !624, i32 0, i32 0} ; [ DW_TAG_subroutine_type ]
!624 = metadata !{null, metadata !349, metadata !130}
!625 = metadata !{i32 786478, i32 0, metadata !59, metadata !"ap_uint", metadata !"ap_uint", metadata !"", metadata !60, i32 253, metadata !626, i1 false, i1 false, i32 0, i32 0, null, i32 256, i1 false, null, null, i32 0, metadata !76, i32 253} ; [ DW_TAG_subprogram ]
!626 = metadata !{i32 786453, i32 0, metadata !"", i32 0, i32 0, i64 0, i64 0, i64 0, i32 0, null, metadata !627, i32 0, i32 0} ; [ DW_TAG_subroutine_type ]
!627 = metadata !{null, metadata !349, metadata !134}
!628 = metadata !{i32 786478, i32 0, metadata !59, metadata !"ap_uint", metadata !"ap_uint", metadata !"", metadata !60, i32 254, metadata !629, i1 false, i1 false, i32 0, i32 0, null, i32 256, i1 false, null, null, i32 0, metadata !76, i32 254} ; [ DW_TAG_subprogram ]
!629 = metadata !{i32 786453, i32 0, metadata !"", i32 0, i32 0, i64 0, i64 0, i64 0, i32 0, null, metadata !630, i32 0, i32 0} ; [ DW_TAG_subroutine_type ]
!630 = metadata !{null, metadata !349, metadata !144}
!631 = metadata !{i32 786478, i32 0, metadata !59, metadata !"ap_uint", metadata !"ap_uint", metadata !"", metadata !60, i32 255, metadata !632, i1 false, i1 false, i32 0, i32 0, null, i32 256, i1 false, null, null, i32 0, metadata !76, i32 255} ; [ DW_TAG_subprogram ]
!632 = metadata !{i32 786453, i32 0, metadata !"", i32 0, i32 0, i64 0, i64 0, i64 0, i32 0, null, metadata !633, i32 0, i32 0} ; [ DW_TAG_subroutine_type ]
!633 = metadata !{null, metadata !349, metadata !139}
!634 = metadata !{i32 786478, i32 0, metadata !59, metadata !"ap_uint", metadata !"ap_uint", metadata !"", metadata !60, i32 256, metadata !635, i1 false, i1 false, i32 0, i32 0, null, i32 256, i1 false, null, null, i32 0, metadata !76, i32 256} ; [ DW_TAG_subprogram ]
!635 = metadata !{i32 786453, i32 0, metadata !"", i32 0, i32 0, i64 0, i64 0, i64 0, i32 0, null, metadata !636, i32 0, i32 0} ; [ DW_TAG_subroutine_type ]
!636 = metadata !{null, metadata !349, metadata !148}
!637 = metadata !{i32 786478, i32 0, metadata !59, metadata !"ap_uint", metadata !"ap_uint", metadata !"", metadata !60, i32 257, metadata !638, i1 false, i1 false, i32 0, i32 0, null, i32 256, i1 false, null, null, i32 0, metadata !76, i32 257} ; [ DW_TAG_subprogram ]
!638 = metadata !{i32 786453, i32 0, metadata !"", i32 0, i32 0, i64 0, i64 0, i64 0, i32 0, null, metadata !639, i32 0, i32 0} ; [ DW_TAG_subroutine_type ]
!639 = metadata !{null, metadata !349, metadata !152}
!640 = metadata !{i32 786478, i32 0, metadata !59, metadata !"ap_uint", metadata !"ap_uint", metadata !"", metadata !60, i32 259, metadata !641, i1 false, i1 false, i32 0, i32 0, null, i32 256, i1 false, null, null, i32 0, metadata !76, i32 259} ; [ DW_TAG_subprogram ]
!641 = metadata !{i32 786453, i32 0, metadata !"", i32 0, i32 0, i64 0, i64 0, i64 0, i32 0, null, metadata !642, i32 0, i32 0} ; [ DW_TAG_subroutine_type ]
!642 = metadata !{null, metadata !349, metadata !156}
!643 = metadata !{i32 786478, i32 0, metadata !59, metadata !"ap_uint", metadata !"ap_uint", metadata !"", metadata !60, i32 260, metadata !644, i1 false, i1 false, i32 0, i32 0, null, i32 256, i1 false, null, null, i32 0, metadata !76, i32 260} ; [ DW_TAG_subprogram ]
!644 = metadata !{i32 786453, i32 0, metadata !"", i32 0, i32 0, i64 0, i64 0, i64 0, i32 0, null, metadata !645, i32 0, i32 0} ; [ DW_TAG_subroutine_type ]
!645 = metadata !{null, metadata !349, metadata !156, metadata !107}
!646 = metadata !{i32 786478, i32 0, metadata !59, metadata !"operator=", metadata !"operator=", metadata !"_ZNV7ap_uintILi512EEaSERKS0_", metadata !60, i32 263, metadata !647, i1 false, i1 false, i32 0, i32 0, null, i32 256, i1 false, null, null, i32 0, metadata !76, i32 263} ; [ DW_TAG_subprogram ]
!647 = metadata !{i32 786453, i32 0, metadata !"", i32 0, i32 0, i64 0, i64 0, i64 0, i32 0, null, metadata !648, i32 0, i32 0} ; [ DW_TAG_subroutine_type ]
!648 = metadata !{null, metadata !649, metadata !651}
!649 = metadata !{i32 786447, i32 0, metadata !"", i32 0, i32 0, i64 64, i64 64, i64 0, i32 64, metadata !650} ; [ DW_TAG_pointer_type ]
!650 = metadata !{i32 786485, null, metadata !"", null, i32 0, i64 0, i64 0, i64 0, i32 0, metadata !59} ; [ DW_TAG_volatile_type ]
!651 = metadata !{i32 786448, null, null, null, i32 0, i64 0, i64 0, i64 0, i32 0, metadata !652} ; [ DW_TAG_reference_type ]
!652 = metadata !{i32 786470, null, metadata !"", null, i32 0, i64 0, i64 0, i64 0, i32 0, metadata !59} ; [ DW_TAG_const_type ]
!653 = metadata !{i32 786478, i32 0, metadata !59, metadata !"operator=", metadata !"operator=", metadata !"_ZNV7ap_uintILi512EEaSERVKS0_", metadata !60, i32 267, metadata !654, i1 false, i1 false, i32 0, i32 0, null, i32 256, i1 false, null, null, i32 0, metadata !76, i32 267} ; [ DW_TAG_subprogram ]
!654 = metadata !{i32 786453, i32 0, metadata !"", i32 0, i32 0, i64 0, i64 0, i64 0, i32 0, null, metadata !655, i32 0, i32 0} ; [ DW_TAG_subroutine_type ]
!655 = metadata !{null, metadata !649, metadata !656}
!656 = metadata !{i32 786448, null, null, null, i32 0, i64 0, i64 0, i64 0, i32 0, metadata !657} ; [ DW_TAG_reference_type ]
!657 = metadata !{i32 786470, null, metadata !"", null, i32 0, i64 0, i64 0, i64 0, i32 0, metadata !650} ; [ DW_TAG_const_type ]
!658 = metadata !{i32 786478, i32 0, metadata !59, metadata !"operator=", metadata !"operator=", metadata !"_ZN7ap_uintILi512EEaSERVKS0_", metadata !60, i32 271, metadata !659, i1 false, i1 false, i32 0, i32 0, null, i32 256, i1 false, null, null, i32 0, metadata !76, i32 271} ; [ DW_TAG_subprogram ]
!659 = metadata !{i32 786453, i32 0, metadata !"", i32 0, i32 0, i64 0, i64 0, i64 0, i32 0, null, metadata !660, i32 0, i32 0} ; [ DW_TAG_subroutine_type ]
!660 = metadata !{metadata !661, metadata !349, metadata !656}
!661 = metadata !{i32 786448, null, null, null, i32 0, i64 0, i64 0, i64 0, i32 0, metadata !59} ; [ DW_TAG_reference_type ]
!662 = metadata !{i32 786478, i32 0, metadata !59, metadata !"operator=", metadata !"operator=", metadata !"_ZN7ap_uintILi512EEaSERKS0_", metadata !60, i32 276, metadata !663, i1 false, i1 false, i32 0, i32 0, null, i32 256, i1 false, null, null, i32 0, metadata !76, i32 276} ; [ DW_TAG_subprogram ]
!663 = metadata !{i32 786453, i32 0, metadata !"", i32 0, i32 0, i64 0, i64 0, i64 0, i32 0, null, metadata !664, i32 0, i32 0} ; [ DW_TAG_subroutine_type ]
!664 = metadata !{metadata !661, metadata !349, metadata !651}
!665 = metadata !{i32 786478, i32 0, metadata !59, metadata !"~ap_uint", metadata !"~ap_uint", metadata !"", metadata !60, i32 180, metadata !347, i1 false, i1 false, i32 0, i32 0, null, i32 320, i1 false, null, null, i32 0, metadata !76, i32 180} ; [ DW_TAG_subprogram ]
!666 = metadata !{metadata !344}
!667 = metadata !{i32 786447, null, metadata !"", null, i32 0, i64 64, i64 64, i64 0, i32 0, metadata !58} ; [ DW_TAG_pointer_type ]
!668 = metadata !{i32 786447, null, metadata !"", null, i32 0, i64 64, i64 64, i64 0, i32 0, metadata !669} ; [ DW_TAG_pointer_type ]
!669 = metadata !{i32 786438, null, metadata !"ap_uint<512>", metadata !60, i32 180, i64 512, i64 512, i32 0, i32 0, null, metadata !670, i32 0, null, metadata !666} ; [ DW_TAG_class_field_type ]
!670 = metadata !{metadata !671}
!671 = metadata !{i32 786438, null, metadata !"ap_int_base<512, false, false>", metadata !64, i32 2341, i64 512, i64 512, i32 0, i32 0, null, metadata !672, i32 0, null, metadata !343} ; [ DW_TAG_class_field_type ]
!672 = metadata !{metadata !673}
!673 = metadata !{i32 786438, null, metadata !"ssdm_int<512 + 1024 * 0, false>", metadata !68, i32 526, i64 512, i64 512, i32 0, i32 0, null, metadata !674, i32 0, null, metadata !78} ; [ DW_TAG_class_field_type ]
!674 = metadata !{metadata !70}
!675 = metadata !{i32 8, i32 36, metadata !54, null}
!676 = metadata !{i32 10, i32 1, metadata !677, null}
!677 = metadata !{i32 786443, metadata !54, i32 8, i32 43, metadata !55, i32 0} ; [ DW_TAG_lexical_block ]
!678 = metadata !{i32 11, i32 1, metadata !677, null}
!679 = metadata !{i32 12, i32 1, metadata !677, null}
!680 = metadata !{i32 226, i32 91, metadata !681, metadata !683}
!681 = metadata !{i32 786443, metadata !682, i32 226, i32 89, metadata !60, i32 1} ; [ DW_TAG_lexical_block ]
!682 = metadata !{i32 786478, i32 0, null, metadata !"ap_uint<514, true>", metadata !"ap_uint<514, true>", metadata !"_ZN7ap_uintILi512EEC2ILi514ELb1EEERK11ap_int_baseIXT_EXT0_EXleT_Li64EEE", metadata !60, i32 226, metadata !351, i1 false, i1 true, i32 0, i32 0, null, i32 256, i1 false, null, metadata !376, metadata !350, metadata !76, i32 226} ; [ DW_TAG_subprogram ]
!683 = metadata !{i32 226, i32 106, metadata !684, metadata !685}
!684 = metadata !{i32 786478, i32 0, null, metadata !"ap_uint<514, true>", metadata !"ap_uint<514, true>", metadata !"_ZN7ap_uintILi512EEC1ILi514ELb1EEERK11ap_int_baseIXT_EXT0_EXleT_Li64EEE", metadata !60, i32 226, metadata !351, i1 false, i1 true, i32 0, i32 0, null, i32 256, i1 false, null, metadata !376, metadata !350, metadata !76, i32 226} ; [ DW_TAG_subprogram ]
!685 = metadata !{i32 18, i32 12, metadata !677, null}
!686 = metadata !{i32 790531, metadata !687, metadata !"ssdm_int<512 + 1024 * 0, false>.V", null, i32 276, metadata !668, i32 0, i32 0} ; [ DW_TAG_arg_variable_field ]
!687 = metadata !{i32 786689, metadata !688, metadata !"this", metadata !60, i32 16777492, metadata !689, i32 64, i32 0} ; [ DW_TAG_arg_variable ]
!688 = metadata !{i32 786478, i32 0, null, metadata !"operator=", metadata !"operator=", metadata !"_ZN7ap_uintILi512EEaSERKS0_", metadata !60, i32 276, metadata !663, i1 false, i1 true, i32 0, i32 0, null, i32 256, i1 false, null, null, metadata !662, metadata !76, i32 276} ; [ DW_TAG_subprogram ]
!689 = metadata !{i32 786447, null, metadata !"", null, i32 0, i64 64, i64 64, i64 0, i32 0, metadata !59} ; [ DW_TAG_pointer_type ]
!690 = metadata !{i32 276, i32 53, metadata !688, metadata !685}
!691 = metadata !{i32 277, i32 10, metadata !692, metadata !685}
!692 = metadata !{i32 786443, metadata !688, i32 276, i32 92, metadata !60, i32 4} ; [ DW_TAG_lexical_block ]
!693 = metadata !{i32 20, i32 1, metadata !677, null}
